---
triple:          'arm64-apple-darwin'
binary-path:     'custom_example/build/main'
relocations:
  - { offsetInCU: 0x3AAD, offset: 0x3AAD, size: 0x8, addend: 0x0, symName: __ZNSt3__124__put_character_sequenceB8ue170006IcNS_11char_traitsIcEEEERNS_13basic_ostreamIT_T0_EES7_PKS4_m, symObjAddr: 0x4D8, symBinAddr: 0x100001854, symSize: 0x290 }
  - { offsetInCU: 0x61A8, offset: 0x61A8, size: 0x8, addend: 0x0, symName: __ZNSt3__120__throw_length_errorB8ue170006EPKc, symObjAddr: 0x788, symBinAddr: 0x100001B04, symSize: 0x50 }
  - { offsetInCU: 0x8D82, offset: 0x8D82, size: 0x8, addend: 0x0, symName: _main, symObjAddr: 0x0, symBinAddr: 0x10000137C, symSize: 0x4D8 }
  - { offsetInCU: 0x9FE3, offset: 0x9FE3, size: 0x8, addend: 0x0, symName: __ZNKSt3__112basic_stringIcNS_11char_traitsIcEENS_9allocatorIcEEE20__throw_length_errorB8ue170006Ev, symObjAddr: 0x774, symBinAddr: 0x100001AF0, symSize: 0x14 }
  - { offsetInCU: 0xA008, offset: 0xA008, size: 0x8, addend: 0x0, symName: __ZNSt3__120__throw_length_errorB8ue170006EPKc, symObjAddr: 0x788, symBinAddr: 0x100001B04, symSize: 0x50 }
  - { offsetInCU: 0xA013, offset: 0xA013, size: 0x8, addend: 0x0, symName: __ZNSt12length_errorC1B8ue170006EPKc, symObjAddr: 0x7D8, symBinAddr: 0x100001B54, symSize: 0x24 }
  - { offsetInCU: 0x27, offset: 0xA0C6, size: 0x8, addend: 0x0, symName: __Z10is_includeNSt3__112basic_stringIcNS_11char_traitsIcEENS_9allocatorIcEEEE, symObjAddr: 0x7FC, symBinAddr: 0x100001B78, symSize: 0xCC4 }
  - { offsetInCU: 0x2AD6, offset: 0xCB75, size: 0x8, addend: 0x0, symName: __ZN5boost13re_detail_50011raise_errorINS_20regex_traits_wrapperINS_12regex_traitsIcNS_16cpp_regex_traitsIcEEEEEEEEvRKT_NS_15regex_constants10error_typeE, symObjAddr: 0x5274, symBinAddr: 0x1000065F0, symSize: 0x90 }
  - { offsetInCU: 0x2EB5, offset: 0xCF54, size: 0x8, addend: 0x0, symName: __ZN5boost13re_detail_50016re_is_set_memberINSt3__111__wrap_iterIPKcEEcNS_12regex_traitsIcNS_16cpp_regex_traitsIcEEEEjEET_SB_SB_PKNS0_11re_set_longIT2_EERKNS0_10regex_dataIT0_T1_EEb, symObjAddr: 0x8848, symBinAddr: 0x100009BC4, symSize: 0x4E8 }
  - { offsetInCU: 0x398B, offset: 0xDA2A, size: 0x8, addend: 0x0, symName: __ZN5boost13re_detail_50014string_compareIcNSt3__111char_traitsIcEENS2_9allocatorIcEEEEiRKNS2_12basic_stringIT_T0_T1_EEPKS8_, symObjAddr: 0x8FA4, symBinAddr: 0x10000A320, symSize: 0xEC }
  - { offsetInCU: 0x55ED, offset: 0xF68C, size: 0x8, addend: 0x0, symName: __ZN5boost16exception_detail20copy_boost_exceptionEPNS_9exceptionEPKS1_, symObjAddr: 0x9E90, symBinAddr: 0x10000B20C, symSize: 0x120 }
  - { offsetInCU: 0x5F95, offset: 0x10034, size: 0x8, addend: 0x0, symName: __ZN5boost15throw_exceptionISt11logic_errorEEvRKT_, symObjAddr: 0x4BD8, symBinAddr: 0x100005F54, symSize: 0x6C }
  - { offsetInCU: 0x6042, offset: 0x100E1, size: 0x8, addend: 0x0, symName: __ZN5boost15throw_exceptionISt16invalid_argumentEEvRKT_, symObjAddr: 0xB6E8, symBinAddr: 0x10000CA64, symSize: 0x6C }
  - { offsetInCU: 0x6112, offset: 0x101B1, size: 0x8, addend: 0x0, symName: __ZN5boost15throw_exceptionINS_11regex_errorEEEvRKT_, symObjAddr: 0x9A20, symBinAddr: 0x10000AD9C, symSize: 0x80 }
  - { offsetInCU: 0x61E2, offset: 0x10281, size: 0x8, addend: 0x0, symName: __ZN5boost15throw_exceptionISt13runtime_errorEEvRKT_, symObjAddr: 0x16C7C, symBinAddr: 0x100017FF8, symSize: 0x6C }
  - { offsetInCU: 0x26581, offset: 0x30620, size: 0x8, addend: 0x0, symName: __ZNSt3__127__tree_balance_after_insertB8ue170006IPNS_16__tree_node_baseIPvEEEEvT_S5_, symObjAddr: 0x12B54, symBinAddr: 0x100013ED0, symSize: 0x1A0 }
  - { offsetInCU: 0x27640, offset: 0x316DF, size: 0x8, addend: 0x0, symName: __ZNSt3__120__throw_out_of_rangeB8ue170006EPKc, symObjAddr: 0x94BC, symBinAddr: 0x10000A838, symSize: 0x50 }
  - { offsetInCU: 0x2A215, offset: 0x342B4, size: 0x8, addend: 0x0, symName: __ZSt28__throw_bad_array_new_lengthB8ue170006v, symObjAddr: 0x862C, symBinAddr: 0x1000099A8, symSize: 0x28 }
  - { offsetInCU: 0x2AF89, offset: 0x35028, size: 0x8, addend: 0x0, symName: __ZZN5boost12object_cacheINS_13re_detail_50021cpp_regex_traits_baseIcEENS1_31cpp_regex_traits_implementationIcEEE6do_getERKS3_mE6s_data, symObjAddr: 0x1E3750, symBinAddr: 0x100020088, symSize: 0x0 }
  - { offsetInCU: 0x2BDE5, offset: 0x35E84, size: 0x8, addend: 0x0, symName: __ZNK5boost13re_detail_50031cpp_regex_traits_implementationIcE20lookup_classname_impEPKcS4_, symObjAddr: 0x12140, symBinAddr: 0x1000134BC, symSize: 0x2B0 }
  - { offsetInCU: 0x2BE0C, offset: 0x35EAB, size: 0x8, addend: 0x0, symName: __ZZNK5boost13re_detail_50031cpp_regex_traits_implementationIcE20lookup_classname_impEPKcS4_E5masks, symObjAddr: 0x187F0, symBinAddr: 0x100019E60, symSize: 0x0 }
  - { offsetInCU: 0x2C86C, offset: 0x3690B, size: 0x8, addend: 0x0, symName: __ZN5boost13re_detail_50018basic_regex_parserIcNS_12regex_traitsIcNS_16cpp_regex_traitsIcEEEEE4failENS_15regex_constants10error_typeEl, symObjAddr: 0x123F0, symBinAddr: 0x10001376C, symSize: 0x9C }
  - { offsetInCU: 0x2CA49, offset: 0x36AE8, size: 0x8, addend: 0x0, symName: __ZZN5boost13re_detail_50018basic_regex_parserIcNS_12regex_traitsIcNS_16cpp_regex_traitsIcEEEEE21parse_extended_escapeEvE18incomplete_message, symObjAddr: 0x188D0, symBinAddr: 0x100019F40, symSize: 0x0 }
  - { offsetInCU: 0x2CA6F, offset: 0x36B0E, size: 0x8, addend: 0x0, symName: __ZZN5boost13re_detail_50018basic_regex_parserIcNS_12regex_traitsIcNS_16cpp_regex_traitsIcEEEEE15parse_inner_setERNS0_14basic_char_setIcS5_EEE18incomplete_message, symObjAddr: 0x18925, symBinAddr: 0x100019F95, symSize: 0x0 }
  - { offsetInCU: 0x2D036, offset: 0x370D5, size: 0x8, addend: 0x0, symName: __ZN5boost13re_detail_50012perl_matcherINSt3__111__wrap_iterIPKcEENS2_9allocatorINS_9sub_matchIS6_EEEENS_12regex_traitsIcNS_16cpp_regex_traitsIcEEEEE16match_all_statesEv, symObjAddr: 0x4EA8, symBinAddr: 0x100006224, symSize: 0x1BC }
  - { offsetInCU: 0x2D05C, offset: 0x370FB, size: 0x8, addend: 0x0, symName: __ZZN5boost13re_detail_50012perl_matcherINSt3__111__wrap_iterIPKcEENS2_9allocatorINS_9sub_matchIS6_EEEENS_12regex_traitsIcNS_16cpp_regex_traitsIcEEEEE16match_all_statesEvE14s_match_vtable, symObjAddr: 0x1B1E0, symBinAddr: 0x10001D070, symSize: 0x0 }
  - { offsetInCU: 0x2D56F, offset: 0x3760E, size: 0x8, addend: 0x0, symName: __ZNK5boost13re_detail_50031cpp_regex_traits_implementationIcE9transformEPKcS4_, symObjAddr: 0x8D30, symBinAddr: 0x10000A0AC, symSize: 0x274 }
  - { offsetInCU: 0x2DE8F, offset: 0x37F2E, size: 0x8, addend: 0x0, symName: __ZN5boost13re_detail_50019basic_regex_creatorIcNS_12regex_traitsIcNS_16cpp_regex_traitsIcEEEEE10append_setERKNS0_14basic_char_setIcS5_EE, symObjAddr: 0x15C3C, symBinAddr: 0x100016FB8, symSize: 0x10 }
  - { offsetInCU: 0x2DEC4, offset: 0x37F63, size: 0x8, addend: 0x0, symName: __ZN5boost13re_detail_50019basic_regex_creatorIcNS_12regex_traitsIcNS_16cpp_regex_traitsIcEEEEE10append_setERKNS0_14basic_char_setIcS5_EE, symObjAddr: 0x15C3C, symBinAddr: 0x100016FB8, symSize: 0x10 }
  - { offsetInCU: 0x2E28E, offset: 0x3832D, size: 0x8, addend: 0x0, symName: __ZNSt3__16vectorIN5boost13re_detail_50014recursion_infoINS1_13match_resultsINS_11__wrap_iterIPKcEENS_9allocatorINS1_9sub_matchIS8_EEEEEEEENS9_ISE_EEE26__swap_out_circular_bufferERNS_14__split_bufferISE_RSF_EE, symObjAddr: 0x8654, symBinAddr: 0x1000099D0, symSize: 0x130 }
  - { offsetInCU: 0x2FE1A, offset: 0x39EB9, size: 0x8, addend: 0x0, symName: __Z10is_includeNSt3__112basic_stringIcNS_11char_traitsIcEENS_9allocatorIcEEEE, symObjAddr: 0x7FC, symBinAddr: 0x100001B78, symSize: 0xCC4 }
  - { offsetInCU: 0x32275, offset: 0x3C314, size: 0x8, addend: 0x0, symName: __ZN5boost11basic_regexIcNS_12regex_traitsIcNS_16cpp_regex_traitsIcEEEEE9do_assignEPKcS7_j, symObjAddr: 0x14C0, symBinAddr: 0x10000283C, symSize: 0x2F60 }
  - { offsetInCU: 0x3C65D, offset: 0x466FC, size: 0x8, addend: 0x0, symName: __ZN5boost13re_detail_50015mem_block_cache3getEv, symObjAddr: 0x4748, symBinAddr: 0x100005AC4, symSize: 0x20C }
  - { offsetInCU: 0x3C682, offset: 0x46721, size: 0x8, addend: 0x0, symName: __ZN5boost13re_detail_50015mem_block_cache3getEv, symObjAddr: 0x4748, symBinAddr: 0x100005AC4, symSize: 0x20C }
  - { offsetInCU: 0x3C69F, offset: 0x4673E, size: 0x8, addend: 0x0, symName: __ZN5boost13re_detail_50015mem_block_cache3getEv, symObjAddr: 0x4748, symBinAddr: 0x100005AC4, symSize: 0x20C }
  - { offsetInCU: 0x3C75B, offset: 0x467FA, size: 0x8, addend: 0x0, symName: __ZN5boost13match_resultsINSt3__111__wrap_iterIPKcEENS1_9allocatorINS_9sub_matchIS5_EEEEEaSERKSA_, symObjAddr: 0x4954, symBinAddr: 0x100005CD0, symSize: 0x284 }
  - { offsetInCU: 0x3D24B, offset: 0x472EA, size: 0x8, addend: 0x0, symName: __ZN5boost15throw_exceptionISt11logic_errorEEvRKT_, symObjAddr: 0x4BD8, symBinAddr: 0x100005F54, symSize: 0x6C }
  - { offsetInCU: 0x3D256, offset: 0x472F5, size: 0x8, addend: 0x0, symName: __ZN5boost13match_resultsINSt3__111__wrap_iterIPKcEENS1_9allocatorINS_9sub_matchIS5_EEEEE12maybe_assignERKSA_, symObjAddr: 0x5064, symBinAddr: 0x1000063E0, symSize: 0x210 }
  - { offsetInCU: 0x3D4F4, offset: 0x47593, size: 0x8, addend: 0x0, symName: __ZN5boost13re_detail_50015mem_block_cache3putEPv, symObjAddr: 0x4CE0, symBinAddr: 0x10000605C, symSize: 0x1C8 }
  - { offsetInCU: 0x3D527, offset: 0x475C6, size: 0x8, addend: 0x0, symName: __ZN5boost13re_detail_50015mem_block_cache3putEPv, symObjAddr: 0x4CE0, symBinAddr: 0x10000605C, symSize: 0x1C8 }
  - { offsetInCU: 0x3D544, offset: 0x475E3, size: 0x8, addend: 0x0, symName: __ZN5boost13re_detail_50015mem_block_cache3putEPv, symObjAddr: 0x4CE0, symBinAddr: 0x10000605C, symSize: 0x1C8 }
  - { offsetInCU: 0x3D600, offset: 0x4769F, size: 0x8, addend: 0x0, symName: __ZN5boost13re_detail_50012perl_matcherINSt3__111__wrap_iterIPKcEENS2_9allocatorINS_9sub_matchIS6_EEEENS_12regex_traitsIcNS_16cpp_regex_traitsIcEEEEED2Ev, symObjAddr: 0x4470, symBinAddr: 0x1000057EC, symSize: 0x110 }
  - { offsetInCU: 0x3DD0C, offset: 0x47DAB, size: 0x8, addend: 0x0, symName: __ZNKSt3__16vectorIN5boost9sub_matchINS_11__wrap_iterIPKcEEEENS_9allocatorIS7_EEE20__throw_length_errorB8ue170006Ev, symObjAddr: 0x8834, symBinAddr: 0x100009BB0, symSize: 0x14 }
  - { offsetInCU: 0x3DD31, offset: 0x47DD0, size: 0x8, addend: 0x0, symName: __ZN5boost13re_detail_50016re_is_set_memberINSt3__111__wrap_iterIPKcEEcNS_12regex_traitsIcNS_16cpp_regex_traitsIcEEEEjEET_SB_SB_PKNS0_11re_set_longIT2_EERKNS0_10regex_dataIT0_T1_EEb, symObjAddr: 0x8848, symBinAddr: 0x100009BC4, symSize: 0x4E8 }
  - { offsetInCU: 0x3DD3C, offset: 0x47DDB, size: 0x8, addend: 0x0, symName: __ZNSt3__16vectorIN5boost13re_detail_50014recursion_infoINS1_13match_resultsINS_11__wrap_iterIPKcEENS_9allocatorINS1_9sub_matchIS8_EEEEEEEENS9_ISE_EEED1B8ue170006Ev, symObjAddr: 0xB5C0, symBinAddr: 0x10000C93C, symSize: 0xAC }
  - { offsetInCU: 0x3E122, offset: 0x481C1, size: 0x8, addend: 0x0, symName: __ZNSt3__110unique_ptrIN5boost13match_resultsINS_11__wrap_iterIPKcEENS_9allocatorINS1_9sub_matchIS6_EEEEEENS_14default_deleteISB_EEED1B8ue170006Ev, symObjAddr: 0xB66C, symBinAddr: 0x10000C9E8, symSize: 0x7C }
  - { offsetInCU: 0x3E3D6, offset: 0x48475, size: 0x8, addend: 0x0, symName: __ZN5boost13re_detail_50015save_state_initD1Ev, symObjAddr: 0x4C44, symBinAddr: 0x100005FC0, symSize: 0x9C }
  - { offsetInCU: 0x3E440, offset: 0x484DF, size: 0x8, addend: 0x0, symName: __ZN5boost13match_resultsINSt3__111__wrap_iterIPKcEENS1_9allocatorINS_9sub_matchIS5_EEEEED1Ev, symObjAddr: 0x4580, symBinAddr: 0x1000058FC, symSize: 0x6C }
  - { offsetInCU: 0x3E639, offset: 0x486D8, size: 0x8, addend: 0x0, symName: __ZN5boost11basic_regexIcNS_12regex_traitsIcNS_16cpp_regex_traitsIcEEEEED1Ev, symObjAddr: 0x4420, symBinAddr: 0x10000579C, symSize: 0x50 }
  - { offsetInCU: 0x42B34, offset: 0x4CBD3, size: 0x8, addend: 0x0, symName: __ZN5boost16cpp_regex_traitsIcE16get_catalog_nameEv, symObjAddr: 0x16B0C, symBinAddr: 0x100017E88, symSize: 0x170 }
  - { offsetInCU: 0x42F95, offset: 0x4D034, size: 0x8, addend: 0x0, symName: __ZNSt3__16__treeINS_12__value_typeIN5boost13re_detail_50021cpp_regex_traits_baseIcEENS_15__list_iteratorINS_4pairINS_10shared_ptrIKNS3_31cpp_regex_traits_implementationIcEEEEPKS5_EEPvEEEENS_19__map_value_compareIS5_SI_NS_4lessIS5_EELb1EEENS_9allocatorISI_EEE25__emplace_unique_key_argsIS5_JRKNS_21piecewise_construct_tENS_5tupleIJRSD_EEENSU_IJEEEEEENS7_INS_15__tree_iteratorISI_PNS_11__tree_nodeISI_SG_EElEEbEERKT_DpOT0_, symObjAddr: 0x1677C, symBinAddr: 0x100017AF8, symSize: 0x128 }
  - { offsetInCU: 0x43278, offset: 0x4D317, size: 0x8, addend: 0x0, symName: __ZNK5boost13re_detail_50031cpp_regex_traits_implementationIcE16lookup_classnameEPKcS4_, symObjAddr: 0x11F84, symBinAddr: 0x100013300, symSize: 0x144 }
  - { offsetInCU: 0x4389D, offset: 0x4D93C, size: 0x8, addend: 0x0, symName: __ZN5boost13re_detail_50018basic_regex_parserIcNS_12regex_traitsIcNS_16cpp_regex_traitsIcEEEEE9parse_allEv, symObjAddr: 0xE26C, symBinAddr: 0x10000F5E8, symSize: 0xF8 }
  - { offsetInCU: 0x43DBC, offset: 0x4DE5B, size: 0x8, addend: 0x0, symName: __ZN5boost13re_detail_50018basic_regex_parserIcNS_12regex_traitsIcNS_16cpp_regex_traitsIcEEEEE11unwind_altsEl, symObjAddr: 0xE364, symBinAddr: 0x10000F6E0, symSize: 0x1B4 }
  - { offsetInCU: 0x445DD, offset: 0x4E67C, size: 0x8, addend: 0x0, symName: __ZN5boost13re_detail_50018basic_regex_parserIcNS_12regex_traitsIcNS_16cpp_regex_traitsIcEEEEE4failENS_15regex_constants10error_typeElRKNSt3__112basic_stringIcNS9_11char_traitsIcEENS9_9allocatorIcEEEE, symObjAddr: 0xBC4C, symBinAddr: 0x10000CFC8, symSize: 0x420 }
  - { offsetInCU: 0x45681, offset: 0x4F720, size: 0x8, addend: 0x0, symName: __ZN5boost13re_detail_50019basic_regex_creatorIcNS_12regex_traitsIcNS_16cpp_regex_traitsIcEEEEE18calculate_backstepEPNS0_14re_syntax_baseE, symObjAddr: 0xF744, symBinAddr: 0x100010AC0, symSize: 0x1E4 }
  - { offsetInCU: 0x45731, offset: 0x4F7D0, size: 0x8, addend: 0x0, symName: __ZNSt3__16vectorIhNS_9allocatorIhEEE6assignEmRKh, symObjAddr: 0xE518, symBinAddr: 0x10000F894, symSize: 0x22C }
  - { offsetInCU: 0x45C12, offset: 0x4FCB1, size: 0x8, addend: 0x0, symName: __ZN5boost13re_detail_50019basic_regex_creatorIcNS_12regex_traitsIcNS_16cpp_regex_traitsIcEEEEE15create_startmapEPNS0_14re_syntax_baseEPhPjh, symObjAddr: 0xE744, symBinAddr: 0x10000FAC0, symSize: 0xF3C }
  - { offsetInCU: 0x45C1D, offset: 0x4FCBC, size: 0x8, addend: 0x0, symName: __ZN5boost13re_detail_50019basic_regex_creatorIcNS_12regex_traitsIcNS_16cpp_regex_traitsIcEEEEE15create_startmapEPNS0_14re_syntax_baseEPhPjh, symObjAddr: 0xE744, symBinAddr: 0x10000FAC0, symSize: 0xF3C }
  - { offsetInCU: 0x47482, offset: 0x51521, size: 0x8, addend: 0x0, symName: __ZNKSt3__16vectorINS_4pairIbPN5boost13re_detail_50014re_syntax_baseEEENS_9allocatorIS6_EEE20__throw_length_errorB8ue170006Ev, symObjAddr: 0xF730, symBinAddr: 0x100010AAC, symSize: 0x14 }
  - { offsetInCU: 0x474A7, offset: 0x51546, size: 0x8, addend: 0x0, symName: __ZN5boost13re_detail_50019basic_regex_creatorIcNS_12regex_traitsIcNS_16cpp_regex_traitsIcEEEEE18calculate_backstepEPNS0_14re_syntax_baseE, symObjAddr: 0xF744, symBinAddr: 0x100010AC0, symSize: 0x1E4 }
  - { offsetInCU: 0x474B2, offset: 0x51551, size: 0x8, addend: 0x0, symName: __ZNSt3__14pairINS_10shared_ptrIKN5boost13re_detail_50031cpp_regex_traits_implementationIcEEEEPKNS3_21cpp_regex_traits_baseIcEEED1Ev, symObjAddr: 0x168A4, symBinAddr: 0x100017C20, symSize: 0x50 }
  - { offsetInCU: 0x47589, offset: 0x51628, size: 0x8, addend: 0x0, symName: __ZNSt3__16__treeINS_12__value_typeINS_12basic_stringIcNS_11char_traitsIcEENS_9allocatorIcEEEES7_EENS_19__map_value_compareIS7_S8_NS_4lessIS7_EELb1EEENS5_IS8_EEE7destroyEPNS_11__tree_nodeIS8_PvEE, symObjAddr: 0x16944, symBinAddr: 0x100017CC0, symSize: 0x64 }
  - { offsetInCU: 0x47951, offset: 0x519F0, size: 0x8, addend: 0x0, symName: __ZNSt3__16__treeINS_12__value_typeINS_12basic_stringIcNS_11char_traitsIcEENS_9allocatorIcEEEEjEENS_19__map_value_compareIS7_S8_NS_4lessIS7_EELb1EEENS5_IS8_EEE7destroyEPNS_11__tree_nodeIS8_PvEE, symObjAddr: 0x169A8, symBinAddr: 0x100017D24, symSize: 0x48 }
  - { offsetInCU: 0x47C35, offset: 0x51CD4, size: 0x8, addend: 0x0, symName: __ZNKSt3__114default_deleteIN5boost13re_detail_50026basic_regex_implementationIcNS1_12regex_traitsIcNS1_16cpp_regex_traitsIcEEEEEEEclB8ue170006EPS8_, symObjAddr: 0xBB3C, symBinAddr: 0x10000CEB8, symSize: 0x80 }
  - { offsetInCU: 0x48045, offset: 0x520E4, size: 0x8, addend: 0x0, symName: __ZN5boost13re_detail_50018basic_regex_parserIcNS_12regex_traitsIcNS_16cpp_regex_traitsIcEEEEED1Ev, symObjAddr: 0xBC0C, symBinAddr: 0x10000CF88, symSize: 0x40 }
  - { offsetInCU: 0x48321, offset: 0x523C0, size: 0x8, addend: 0x0, symName: __ZNSt3__14listINS_4pairINS_10shared_ptrIKN5boost13re_detail_50031cpp_regex_traits_implementationIcEEEEPKNS4_21cpp_regex_traits_baseIcEEEENS_9allocatorISD_EEED1Ev, symObjAddr: 0x166D0, symBinAddr: 0x100017A4C, symSize: 0xAC }
  - { offsetInCU: 0x4861D, offset: 0x526BC, size: 0x8, addend: 0x0, symName: __ZNSt3__16__treeINS_12__value_typeIiNS_12basic_stringIcNS_11char_traitsIcEENS_9allocatorIcEEEEEENS_19__map_value_compareIiS8_NS_4lessIiEELb1EEENS5_IS8_EEE7destroyEPNS_11__tree_nodeIS8_PvEE, symObjAddr: 0x169F0, symBinAddr: 0x100017D6C, symSize: 0x48 }
  - { offsetInCU: 0x48909, offset: 0x529A8, size: 0x8, addend: 0x0, symName: __ZNSt3__110shared_ptrIKN5boost13re_detail_50031cpp_regex_traits_implementationIcEEED1B8ue170006Ev, symObjAddr: 0x168F4, symBinAddr: 0x100017C70, symSize: 0x50 }
  - { offsetInCU: 0x489A8, offset: 0x52A47, size: 0x8, addend: 0x0, symName: __ZNSt3__110shared_ptrIN5boost13re_detail_50026basic_regex_implementationIcNS1_12regex_traitsIcNS1_16cpp_regex_traitsIcEEEEEEED1B8ue170006Ev, symObjAddr: 0xBBBC, symBinAddr: 0x10000CF38, symSize: 0x50 }
  - { offsetInCU: 0x48C57, offset: 0x52CF6, size: 0x8, addend: 0x0, symName: __ZN5boost13re_detail_50015mem_block_cacheD1Ev, symObjAddr: 0x45EC, symBinAddr: 0x100005968, symSize: 0x15C }
  - { offsetInCU: 0x4910E, offset: 0x531AD, size: 0x8, addend: 0x0, symName: __ZN5boost13re_detail_50012perl_matcherINSt3__111__wrap_iterIPKcEENS2_9allocatorINS_9sub_matchIS6_EEEENS_12regex_traitsIcNS_16cpp_regex_traitsIcEEEEE12extend_stackEv, symObjAddr: 0x5304, symBinAddr: 0x100006680, symSize: 0xA8 }
  - { offsetInCU: 0x49266, offset: 0x53305, size: 0x8, addend: 0x0, symName: __ZNK5boost13re_detail_50031cpp_regex_traits_implementationIcE12error_stringENS_15regex_constants10error_typeE, symObjAddr: 0x98C4, symBinAddr: 0x10000AC40, symSize: 0x15C }
  - { offsetInCU: 0x4977F, offset: 0x5381E, size: 0x8, addend: 0x0, symName: __ZN5boost15throw_exceptionINS_11regex_errorEEEvRKT_, symObjAddr: 0x9A20, symBinAddr: 0x10000AD9C, symSize: 0x80 }
  - { offsetInCU: 0x499AE, offset: 0x53A4D, size: 0x8, addend: 0x0, symName: __ZN5boost13re_detail_50012perl_matcherINSt3__111__wrap_iterIPKcEENS2_9allocatorINS_9sub_matchIS6_EEEENS_12regex_traitsIcNS_16cpp_regex_traitsIcEEEEE15match_startmarkEv, symObjAddr: 0x53AC, symBinAddr: 0x100006728, symSize: 0x4E4 }
  - { offsetInCU: 0x4A086, offset: 0x54125, size: 0x8, addend: 0x0, symName: __ZN5boost13re_detail_50012perl_matcherINSt3__111__wrap_iterIPKcEENS2_9allocatorINS_9sub_matchIS6_EEEENS_12regex_traitsIcNS_16cpp_regex_traitsIcEEEEE20match_assert_backrefEv, symObjAddr: 0x78D4, symBinAddr: 0x100008C50, symSize: 0x3B0 }
  - { offsetInCU: 0x4ACFD, offset: 0x54D9C, size: 0x8, addend: 0x0, symName: __ZN5boost13match_resultsINSt3__111__wrap_iterIPKcEENS1_9allocatorINS_9sub_matchIS5_EEEEE9set_firstES5_mb, symObjAddr: 0x9788, symBinAddr: 0x10000AB04, symSize: 0x13C }
  - { offsetInCU: 0x4B22A, offset: 0x552C9, size: 0x8, addend: 0x0, symName: __ZN5boost13re_detail_50012perl_matcherINSt3__111__wrap_iterIPKcEENS2_9allocatorINS_9sub_matchIS6_EEEENS_12regex_traitsIcNS_16cpp_regex_traitsIcEEEEE13match_endmarkEv, symObjAddr: 0x5890, symBinAddr: 0x100006C0C, symSize: 0x2B4 }
  - { offsetInCU: 0x4BB2B, offset: 0x55BCA, size: 0x8, addend: 0x0, symName: __ZN5boost13match_resultsINSt3__111__wrap_iterIPKcEENS1_9allocatorINS_9sub_matchIS5_EEEEEC2ERKSA_, symObjAddr: 0x8230, symBinAddr: 0x1000095AC, symSize: 0x130 }
  - { offsetInCU: 0x4C0C5, offset: 0x56164, size: 0x8, addend: 0x0, symName: __ZN5boost13re_detail_50014repeater_countINSt3__111__wrap_iterIPKcEEE12unwind_untilEiPS7_i, symObjAddr: 0x8530, symBinAddr: 0x1000098AC, symSize: 0x7C }
  - { offsetInCU: 0x4C18B, offset: 0x5622A, size: 0x8, addend: 0x0, symName: __ZN5boost13re_detail_50012perl_matcherINSt3__111__wrap_iterIPKcEENS2_9allocatorINS_9sub_matchIS6_EEEENS_12regex_traitsIcNS_16cpp_regex_traitsIcEEEEE13match_literalEv, symObjAddr: 0x5B44, symBinAddr: 0x100006EC0, symSize: 0xE4 }
  - { offsetInCU: 0x4C298, offset: 0x56337, size: 0x8, addend: 0x0, symName: __ZN5boost13re_detail_50012perl_matcherINSt3__111__wrap_iterIPKcEENS2_9allocatorINS_9sub_matchIS6_EEEENS_12regex_traitsIcNS_16cpp_regex_traitsIcEEEEE16match_start_lineEv, symObjAddr: 0x5C28, symBinAddr: 0x100006FA4, symSize: 0x90 }
  - { offsetInCU: 0x4C2D5, offset: 0x56374, size: 0x8, addend: 0x0, symName: __ZN5boost13re_detail_50012perl_matcherINSt3__111__wrap_iterIPKcEENS2_9allocatorINS_9sub_matchIS6_EEEENS_12regex_traitsIcNS_16cpp_regex_traitsIcEEEEE16match_start_lineEv, symObjAddr: 0x5C28, symBinAddr: 0x100006FA4, symSize: 0x90 }
  - { offsetInCU: 0x4C2FD, offset: 0x5639C, size: 0x8, addend: 0x0, symName: __ZN5boost13re_detail_50012perl_matcherINSt3__111__wrap_iterIPKcEENS2_9allocatorINS_9sub_matchIS6_EEEENS_12regex_traitsIcNS_16cpp_regex_traitsIcEEEEE16match_start_lineEv, symObjAddr: 0x5C28, symBinAddr: 0x100006FA4, symSize: 0x90 }
  - { offsetInCU: 0x4C3BE, offset: 0x5645D, size: 0x8, addend: 0x0, symName: __ZN5boost13re_detail_50012perl_matcherINSt3__111__wrap_iterIPKcEENS2_9allocatorINS_9sub_matchIS6_EEEENS_12regex_traitsIcNS_16cpp_regex_traitsIcEEEEE14match_end_lineEv, symObjAddr: 0x5CB8, symBinAddr: 0x100007034, symSize: 0x78 }
  - { offsetInCU: 0x4C3EA, offset: 0x56489, size: 0x8, addend: 0x0, symName: __ZN5boost13re_detail_50012perl_matcherINSt3__111__wrap_iterIPKcEENS2_9allocatorINS_9sub_matchIS6_EEEENS_12regex_traitsIcNS_16cpp_regex_traitsIcEEEEE14match_end_lineEv, symObjAddr: 0x5CB8, symBinAddr: 0x100007034, symSize: 0x78 }
  - { offsetInCU: 0x4C411, offset: 0x564B0, size: 0x8, addend: 0x0, symName: __ZN5boost13re_detail_50012perl_matcherINSt3__111__wrap_iterIPKcEENS2_9allocatorINS_9sub_matchIS6_EEEENS_12regex_traitsIcNS_16cpp_regex_traitsIcEEEEE14match_end_lineEv, symObjAddr: 0x5CB8, symBinAddr: 0x100007034, symSize: 0x78 }
  - { offsetInCU: 0x4C437, offset: 0x564D6, size: 0x8, addend: 0x0, symName: __ZN5boost13re_detail_50012perl_matcherINSt3__111__wrap_iterIPKcEENS2_9allocatorINS_9sub_matchIS6_EEEENS_12regex_traitsIcNS_16cpp_regex_traitsIcEEEEE14match_end_lineEv, symObjAddr: 0x5CB8, symBinAddr: 0x100007034, symSize: 0x78 }
  - { offsetInCU: 0x4C4EF, offset: 0x5658E, size: 0x8, addend: 0x0, symName: __ZN5boost13re_detail_50012perl_matcherINSt3__111__wrap_iterIPKcEENS2_9allocatorINS_9sub_matchIS6_EEEENS_12regex_traitsIcNS_16cpp_regex_traitsIcEEEEE10match_wildEv, symObjAddr: 0x5D30, symBinAddr: 0x1000070AC, symSize: 0x68 }
  - { offsetInCU: 0x4C513, offset: 0x565B2, size: 0x8, addend: 0x0, symName: __ZN5boost13re_detail_50012perl_matcherINSt3__111__wrap_iterIPKcEENS2_9allocatorINS_9sub_matchIS6_EEEENS_12regex_traitsIcNS_16cpp_regex_traitsIcEEEEE10match_wildEv, symObjAddr: 0x5D30, symBinAddr: 0x1000070AC, symSize: 0x68 }
  - { offsetInCU: 0x4C53A, offset: 0x565D9, size: 0x8, addend: 0x0, symName: __ZN5boost13re_detail_50012perl_matcherINSt3__111__wrap_iterIPKcEENS2_9allocatorINS_9sub_matchIS6_EEEENS_12regex_traitsIcNS_16cpp_regex_traitsIcEEEEE10match_wildEv, symObjAddr: 0x5D30, symBinAddr: 0x1000070AC, symSize: 0x68 }
  - { offsetInCU: 0x4C5A3, offset: 0x56642, size: 0x8, addend: 0x0, symName: __ZN5boost13re_detail_50012perl_matcherINSt3__111__wrap_iterIPKcEENS2_9allocatorINS_9sub_matchIS6_EEEENS_12regex_traitsIcNS_16cpp_regex_traitsIcEEEEE11match_matchEv, symObjAddr: 0x5D98, symBinAddr: 0x100007114, symSize: 0x2C8 }
  - { offsetInCU: 0x4CF48, offset: 0x56FE7, size: 0x8, addend: 0x0, symName: __ZN5boost13re_detail_50012perl_matcherINSt3__111__wrap_iterIPKcEENS2_9allocatorINS_9sub_matchIS6_EEEENS_12regex_traitsIcNS_16cpp_regex_traitsIcEEEEE19match_word_boundaryEv, symObjAddr: 0x6060, symBinAddr: 0x1000073DC, symSize: 0x228 }
  - { offsetInCU: 0x4D298, offset: 0x57337, size: 0x8, addend: 0x0, symName: __ZN5boost13re_detail_50012perl_matcherINSt3__111__wrap_iterIPKcEENS2_9allocatorINS_9sub_matchIS6_EEEENS_12regex_traitsIcNS_16cpp_regex_traitsIcEEEEE17match_within_wordEv, symObjAddr: 0x6288, symBinAddr: 0x100007604, symSize: 0x34 }
  - { offsetInCU: 0x4D2E0, offset: 0x5737F, size: 0x8, addend: 0x0, symName: __ZN5boost13re_detail_50012perl_matcherINSt3__111__wrap_iterIPKcEENS2_9allocatorINS_9sub_matchIS6_EEEENS_12regex_traitsIcNS_16cpp_regex_traitsIcEEEEE16match_word_startEv, symObjAddr: 0x62BC, symBinAddr: 0x100007638, symSize: 0x1C0 }
  - { offsetInCU: 0x4D30C, offset: 0x573AB, size: 0x8, addend: 0x0, symName: __ZN5boost13re_detail_50012perl_matcherINSt3__111__wrap_iterIPKcEENS2_9allocatorINS_9sub_matchIS6_EEEENS_12regex_traitsIcNS_16cpp_regex_traitsIcEEEEE16match_word_startEv, symObjAddr: 0x62BC, symBinAddr: 0x100007638, symSize: 0x1C0 }
  - { offsetInCU: 0x4D333, offset: 0x573D2, size: 0x8, addend: 0x0, symName: __ZN5boost13re_detail_50012perl_matcherINSt3__111__wrap_iterIPKcEENS2_9allocatorINS_9sub_matchIS6_EEEENS_12regex_traitsIcNS_16cpp_regex_traitsIcEEEEE16match_word_startEv, symObjAddr: 0x62BC, symBinAddr: 0x100007638, symSize: 0x1C0 }
  - { offsetInCU: 0x4D57B, offset: 0x5761A, size: 0x8, addend: 0x0, symName: __ZN5boost13re_detail_50012perl_matcherINSt3__111__wrap_iterIPKcEENS2_9allocatorINS_9sub_matchIS6_EEEENS_12regex_traitsIcNS_16cpp_regex_traitsIcEEEEE14match_word_endEv, symObjAddr: 0x647C, symBinAddr: 0x1000077F8, symSize: 0x1D4 }
  - { offsetInCU: 0x4D5B8, offset: 0x57657, size: 0x8, addend: 0x0, symName: __ZN5boost13re_detail_50012perl_matcherINSt3__111__wrap_iterIPKcEENS2_9allocatorINS_9sub_matchIS6_EEEENS_12regex_traitsIcNS_16cpp_regex_traitsIcEEEEE14match_word_endEv, symObjAddr: 0x647C, symBinAddr: 0x1000077F8, symSize: 0x1D4 }
  - { offsetInCU: 0x4D5E0, offset: 0x5767F, size: 0x8, addend: 0x0, symName: __ZN5boost13re_detail_50012perl_matcherINSt3__111__wrap_iterIPKcEENS2_9allocatorINS_9sub_matchIS6_EEEENS_12regex_traitsIcNS_16cpp_regex_traitsIcEEEEE14match_word_endEv, symObjAddr: 0x647C, symBinAddr: 0x1000077F8, symSize: 0x1D4 }
  - { offsetInCU: 0x4D82E, offset: 0x578CD, size: 0x8, addend: 0x0, symName: __ZN5boost13re_detail_50012perl_matcherINSt3__111__wrap_iterIPKcEENS2_9allocatorINS_9sub_matchIS6_EEEENS_12regex_traitsIcNS_16cpp_regex_traitsIcEEEEE18match_buffer_startEv, symObjAddr: 0x6650, symBinAddr: 0x1000079CC, symSize: 0x34 }
  - { offsetInCU: 0x4D85A, offset: 0x578F9, size: 0x8, addend: 0x0, symName: __ZN5boost13re_detail_50012perl_matcherINSt3__111__wrap_iterIPKcEENS2_9allocatorINS_9sub_matchIS6_EEEENS_12regex_traitsIcNS_16cpp_regex_traitsIcEEEEE18match_buffer_startEv, symObjAddr: 0x6650, symBinAddr: 0x1000079CC, symSize: 0x34 }
  - { offsetInCU: 0x4D882, offset: 0x57921, size: 0x8, addend: 0x0, symName: __ZN5boost13re_detail_50012perl_matcherINSt3__111__wrap_iterIPKcEENS2_9allocatorINS_9sub_matchIS6_EEEENS_12regex_traitsIcNS_16cpp_regex_traitsIcEEEEE18match_buffer_startEv, symObjAddr: 0x6650, symBinAddr: 0x1000079CC, symSize: 0x34 }
  - { offsetInCU: 0x4D8A9, offset: 0x57948, size: 0x8, addend: 0x0, symName: __ZN5boost13re_detail_50012perl_matcherINSt3__111__wrap_iterIPKcEENS2_9allocatorINS_9sub_matchIS6_EEEENS_12regex_traitsIcNS_16cpp_regex_traitsIcEEEEE18match_buffer_startEv, symObjAddr: 0x6650, symBinAddr: 0x1000079CC, symSize: 0x34 }
  - { offsetInCU: 0x4D8E6, offset: 0x57985, size: 0x8, addend: 0x0, symName: __ZN5boost13re_detail_50012perl_matcherINSt3__111__wrap_iterIPKcEENS2_9allocatorINS_9sub_matchIS6_EEEENS_12regex_traitsIcNS_16cpp_regex_traitsIcEEEEE16match_buffer_endEv, symObjAddr: 0x6684, symBinAddr: 0x100007A00, symSize: 0x30 }
  - { offsetInCU: 0x4D912, offset: 0x579B1, size: 0x8, addend: 0x0, symName: __ZN5boost13re_detail_50012perl_matcherINSt3__111__wrap_iterIPKcEENS2_9allocatorINS_9sub_matchIS6_EEEENS_12regex_traitsIcNS_16cpp_regex_traitsIcEEEEE16match_buffer_endEv, symObjAddr: 0x6684, symBinAddr: 0x100007A00, symSize: 0x30 }
  - { offsetInCU: 0x4D939, offset: 0x579D8, size: 0x8, addend: 0x0, symName: __ZN5boost13re_detail_50012perl_matcherINSt3__111__wrap_iterIPKcEENS2_9allocatorINS_9sub_matchIS6_EEEENS_12regex_traitsIcNS_16cpp_regex_traitsIcEEEEE16match_buffer_endEv, symObjAddr: 0x6684, symBinAddr: 0x100007A00, symSize: 0x30 }
  - { offsetInCU: 0x4D95F, offset: 0x579FE, size: 0x8, addend: 0x0, symName: __ZN5boost13re_detail_50012perl_matcherINSt3__111__wrap_iterIPKcEENS2_9allocatorINS_9sub_matchIS6_EEEENS_12regex_traitsIcNS_16cpp_regex_traitsIcEEEEE16match_buffer_endEv, symObjAddr: 0x6684, symBinAddr: 0x100007A00, symSize: 0x30 }
  - { offsetInCU: 0x4DA02, offset: 0x57AA1, size: 0x8, addend: 0x0, symName: __ZN5boost13re_detail_50012perl_matcherINSt3__111__wrap_iterIPKcEENS2_9allocatorINS_9sub_matchIS6_EEEENS_12regex_traitsIcNS_16cpp_regex_traitsIcEEEEE13match_backrefEv, symObjAddr: 0x66B4, symBinAddr: 0x100007A30, symSize: 0x3C0 }
  - { offsetInCU: 0x4E2BD, offset: 0x5835C, size: 0x8, addend: 0x0, symName: __ZN5boost13re_detail_50012perl_matcherINSt3__111__wrap_iterIPKcEENS2_9allocatorINS_9sub_matchIS6_EEEENS_12regex_traitsIcNS_16cpp_regex_traitsIcEEEEE14match_long_setEv, symObjAddr: 0x6A74, symBinAddr: 0x100007DF0, symSize: 0x8C }
  - { offsetInCU: 0x4E3DD, offset: 0x5847C, size: 0x8, addend: 0x0, symName: __ZN5boost13re_detail_50012perl_matcherINSt3__111__wrap_iterIPKcEENS2_9allocatorINS_9sub_matchIS6_EEEENS_12regex_traitsIcNS_16cpp_regex_traitsIcEEEEE9match_setEv, symObjAddr: 0x6B00, symBinAddr: 0x100007E7C, symSize: 0x88 }
  - { offsetInCU: 0x4E4BF, offset: 0x5855E, size: 0x8, addend: 0x0, symName: __ZN5boost13re_detail_50012perl_matcherINSt3__111__wrap_iterIPKcEENS2_9allocatorINS_9sub_matchIS6_EEEENS_12regex_traitsIcNS_16cpp_regex_traitsIcEEEEE10match_jumpEv, symObjAddr: 0x6B88, symBinAddr: 0x100007F04, symSize: 0x14 }
  - { offsetInCU: 0x4E555, offset: 0x585F4, size: 0x8, addend: 0x0, symName: __ZN5boost13re_detail_50012perl_matcherINSt3__111__wrap_iterIPKcEENS2_9allocatorINS_9sub_matchIS6_EEEENS_12regex_traitsIcNS_16cpp_regex_traitsIcEEEEE9match_altEv, symObjAddr: 0x6B9C, symBinAddr: 0x100007F18, symSize: 0xB0 }
  - { offsetInCU: 0x4E779, offset: 0x58818, size: 0x8, addend: 0x0, symName: __ZN5boost13re_detail_50012perl_matcherINSt3__111__wrap_iterIPKcEENS2_9allocatorINS_9sub_matchIS6_EEEENS_12regex_traitsIcNS_16cpp_regex_traitsIcEEEEE9match_repEv, symObjAddr: 0x6C4C, symBinAddr: 0x100007FC8, symSize: 0x274 }
  - { offsetInCU: 0x4EC22, offset: 0x58CC1, size: 0x8, addend: 0x0, symName: __ZN5boost13re_detail_50012perl_matcherINSt3__111__wrap_iterIPKcEENS2_9allocatorINS_9sub_matchIS6_EEEENS_12regex_traitsIcNS_16cpp_regex_traitsIcEEEEE15match_combiningEv, symObjAddr: 0x6EC0, symBinAddr: 0x10000823C, symSize: 0xAC }
  - { offsetInCU: 0x4ED47, offset: 0x58DE6, size: 0x8, addend: 0x0, symName: __ZN5boost13re_detail_50012perl_matcherINSt3__111__wrap_iterIPKcEENS2_9allocatorINS_9sub_matchIS6_EEEENS_12regex_traitsIcNS_16cpp_regex_traitsIcEEEEE21match_soft_buffer_endEv, symObjAddr: 0x6F6C, symBinAddr: 0x1000082E8, symSize: 0xB8 }
  - { offsetInCU: 0x4EE91, offset: 0x58F30, size: 0x8, addend: 0x0, symName: __ZN5boost13re_detail_50012perl_matcherINSt3__111__wrap_iterIPKcEENS2_9allocatorINS_9sub_matchIS6_EEEENS_12regex_traitsIcNS_16cpp_regex_traitsIcEEEEE22match_restart_continueEv, symObjAddr: 0x7024, symBinAddr: 0x1000083A0, symSize: 0x28 }
  - { offsetInCU: 0x4EEDC, offset: 0x58F7B, size: 0x8, addend: 0x0, symName: __ZN5boost13re_detail_50012perl_matcherINSt3__111__wrap_iterIPKcEENS2_9allocatorINS_9sub_matchIS6_EEEENS_12regex_traitsIcNS_16cpp_regex_traitsIcEEEEE22match_restart_continueEv, symObjAddr: 0x7024, symBinAddr: 0x1000083A0, symSize: 0x28 }
  - { offsetInCU: 0x4F094, offset: 0x59133, size: 0x8, addend: 0x0, symName: __ZN5boost13re_detail_50012perl_matcherINSt3__111__wrap_iterIPKcEENS2_9allocatorINS_9sub_matchIS6_EEEENS_12regex_traitsIcNS_16cpp_regex_traitsIcEEEEE25match_dot_repeat_dispatchEv, symObjAddr: 0x704C, symBinAddr: 0x1000083C8, symSize: 0x1D0 }
  - { offsetInCU: 0x4F3D0, offset: 0x5946F, size: 0x8, addend: 0x0, symName: __ZN5boost13re_detail_50012perl_matcherINSt3__111__wrap_iterIPKcEENS2_9allocatorINS_9sub_matchIS6_EEEENS_12regex_traitsIcNS_16cpp_regex_traitsIcEEEEE21match_dot_repeat_slowEv, symObjAddr: 0x9530, symBinAddr: 0x10000A8AC, symSize: 0x258 }
  - { offsetInCU: 0x4F6F0, offset: 0x5978F, size: 0x8, addend: 0x0, symName: __ZN5boost13re_detail_50012perl_matcherINSt3__111__wrap_iterIPKcEENS2_9allocatorINS_9sub_matchIS6_EEEENS_12regex_traitsIcNS_16cpp_regex_traitsIcEEEEE17match_char_repeatEv, symObjAddr: 0x721C, symBinAddr: 0x100008598, symSize: 0x244 }
  - { offsetInCU: 0x4FAEC, offset: 0x59B8B, size: 0x8, addend: 0x0, symName: __ZN5boost13re_detail_50012perl_matcherINSt3__111__wrap_iterIPKcEENS2_9allocatorINS_9sub_matchIS6_EEEENS_12regex_traitsIcNS_16cpp_regex_traitsIcEEEEE16match_set_repeatEv, symObjAddr: 0x7460, symBinAddr: 0x1000087DC, symSize: 0x21C }
  - { offsetInCU: 0x4FEED, offset: 0x59F8C, size: 0x8, addend: 0x0, symName: __ZN5boost13re_detail_50012perl_matcherINSt3__111__wrap_iterIPKcEENS2_9allocatorINS_9sub_matchIS6_EEEENS_12regex_traitsIcNS_16cpp_regex_traitsIcEEEEE21match_long_set_repeatEv, symObjAddr: 0x767C, symBinAddr: 0x1000089F8, symSize: 0x220 }
  - { offsetInCU: 0x50312, offset: 0x5A3B1, size: 0x8, addend: 0x0, symName: __ZN5boost13re_detail_50012perl_matcherINSt3__111__wrap_iterIPKcEENS2_9allocatorINS_9sub_matchIS6_EEEENS_12regex_traitsIcNS_16cpp_regex_traitsIcEEEEE14match_backstepEv, symObjAddr: 0x789C, symBinAddr: 0x100008C18, symSize: 0x38 }
  - { offsetInCU: 0x50469, offset: 0x5A508, size: 0x8, addend: 0x0, symName: __ZN5boost13re_detail_50012perl_matcherINSt3__111__wrap_iterIPKcEENS2_9allocatorINS_9sub_matchIS6_EEEENS_12regex_traitsIcNS_16cpp_regex_traitsIcEEEEE17match_toggle_caseEv, symObjAddr: 0x7C84, symBinAddr: 0x100009000, symSize: 0x68 }
  - { offsetInCU: 0x5092B, offset: 0x5A9CA, size: 0x8, addend: 0x0, symName: __ZN5boost13re_detail_50012perl_matcherINSt3__111__wrap_iterIPKcEENS2_9allocatorINS_9sub_matchIS6_EEEENS_12regex_traitsIcNS_16cpp_regex_traitsIcEEEEE15match_recursionEv, symObjAddr: 0x7CEC, symBinAddr: 0x100009068, symSize: 0x318 }
  - { offsetInCU: 0x51352, offset: 0x5B3F1, size: 0x8, addend: 0x0, symName: __ZNSt3__16vectorIN5boost13re_detail_50014recursion_infoINS1_13match_resultsINS_11__wrap_iterIPKcEENS_9allocatorINS1_9sub_matchIS8_EEEEEEEENS9_ISE_EEE21__push_back_slow_pathISE_EEvOT_, symObjAddr: 0x8360, symBinAddr: 0x1000096DC, symSize: 0x1D0 }
  - { offsetInCU: 0x51A30, offset: 0x5BACF, size: 0x8, addend: 0x0, symName: __ZNSt3__114__split_bufferIN5boost13re_detail_50014recursion_infoINS1_13match_resultsINS_11__wrap_iterIPKcEENS_9allocatorINS1_9sub_matchIS8_EEEEEEEERNS9_ISE_EEED1Ev, symObjAddr: 0x8784, symBinAddr: 0x100009B00, symSize: 0xB0 }
  - { offsetInCU: 0x51DE9, offset: 0x5BE88, size: 0x8, addend: 0x0, symName: __ZN5boost13re_detail_50014recursion_infoINS_13match_resultsINSt3__111__wrap_iterIPKcEENS3_9allocatorINS_9sub_matchIS7_EEEEEEED1Ev, symObjAddr: 0x85AC, symBinAddr: 0x100009928, symSize: 0x6C }
  - { offsetInCU: 0x52018, offset: 0x5C0B7, size: 0x8, addend: 0x0, symName: __ZN5boost13re_detail_50012perl_matcherINSt3__111__wrap_iterIPKcEENS2_9allocatorINS_9sub_matchIS6_EEEENS_12regex_traitsIcNS_16cpp_regex_traitsIcEEEEE10match_failEv, symObjAddr: 0x8004, symBinAddr: 0x100009380, symSize: 0x8 }
  - { offsetInCU: 0x5203E, offset: 0x5C0DD, size: 0x8, addend: 0x0, symName: __ZN5boost13re_detail_50012perl_matcherINSt3__111__wrap_iterIPKcEENS2_9allocatorINS_9sub_matchIS6_EEEENS_12regex_traitsIcNS_16cpp_regex_traitsIcEEEEE12match_acceptEv, symObjAddr: 0x800C, symBinAddr: 0x100009388, symSize: 0x34 }
  - { offsetInCU: 0x52095, offset: 0x5C134, size: 0x8, addend: 0x0, symName: __ZN5boost13re_detail_50012perl_matcherINSt3__111__wrap_iterIPKcEENS2_9allocatorINS_9sub_matchIS6_EEEENS_12regex_traitsIcNS_16cpp_regex_traitsIcEEEEE16skip_until_parenEib, symObjAddr: 0x8128, symBinAddr: 0x1000094A4, symSize: 0x108 }
  - { offsetInCU: 0x52182, offset: 0x5C221, size: 0x8, addend: 0x0, symName: __ZN5boost13re_detail_50012perl_matcherINSt3__111__wrap_iterIPKcEENS2_9allocatorINS_9sub_matchIS6_EEEENS_12regex_traitsIcNS_16cpp_regex_traitsIcEEEEE12match_commitEv, symObjAddr: 0x8040, symBinAddr: 0x1000093BC, symSize: 0x90 }
  - { offsetInCU: 0x522B9, offset: 0x5C358, size: 0x8, addend: 0x0, symName: __ZN5boost13re_detail_50012perl_matcherINSt3__111__wrap_iterIPKcEENS2_9allocatorINS_9sub_matchIS6_EEEENS_12regex_traitsIcNS_16cpp_regex_traitsIcEEEEE10match_thenEv, symObjAddr: 0x80D0, symBinAddr: 0x10000944C, symSize: 0x58 }
  - { offsetInCU: 0x5249C, offset: 0x5C53B, size: 0x8, addend: 0x0, symName: __ZNKSt3__16vectorIN5boost13re_detail_50014recursion_infoINS1_13match_resultsINS_11__wrap_iterIPKcEENS_9allocatorINS1_9sub_matchIS8_EEEEEEEENS9_ISE_EEE20__throw_length_errorB8ue170006Ev, symObjAddr: 0x8618, symBinAddr: 0x100009994, symSize: 0x14 }
  - { offsetInCU: 0x524C1, offset: 0x5C560, size: 0x8, addend: 0x0, symName: __ZSt28__throw_bad_array_new_lengthB8ue170006v, symObjAddr: 0x862C, symBinAddr: 0x1000099A8, symSize: 0x28 }
  - { offsetInCU: 0x52686, offset: 0x5C725, size: 0x8, addend: 0x0, symName: __ZNK5boost13re_detail_50031cpp_regex_traits_implementationIcE17transform_primaryEPKcS4_, symObjAddr: 0x9090, symBinAddr: 0x10000A40C, symSize: 0x418 }
  - { offsetInCU: 0x535F0, offset: 0x5D68F, size: 0x8, addend: 0x0, symName: __ZNKSt3__112basic_stringIcNS_11char_traitsIcEENS_9allocatorIcEEE20__throw_out_of_rangeB8ue170006Ev, symObjAddr: 0x94A8, symBinAddr: 0x10000A824, symSize: 0x14 }
  - { offsetInCU: 0x53615, offset: 0x5D6B4, size: 0x8, addend: 0x0, symName: __ZNSt3__120__throw_out_of_rangeB8ue170006EPKc, symObjAddr: 0x94BC, symBinAddr: 0x10000A838, symSize: 0x50 }
  - { offsetInCU: 0x53839, offset: 0x5D8D8, size: 0x8, addend: 0x0, symName: __ZNSt12out_of_rangeC1B8ue170006EPKc, symObjAddr: 0x950C, symBinAddr: 0x10000A888, symSize: 0x24 }
  - { offsetInCU: 0x53ABA, offset: 0x5DB59, size: 0x8, addend: 0x0, symName: __ZN5boost10wrapexceptINS_11regex_errorEED1Ev, symObjAddr: 0x9AA0, symBinAddr: 0x10000AE1C, symSize: 0x54 }
  - { offsetInCU: 0x53CAF, offset: 0x5DD4E, size: 0x8, addend: 0x0, symName: __ZNK5boost10wrapexceptINS_11regex_errorEE5cloneEv, symObjAddr: 0x9AF4, symBinAddr: 0x10000AE70, symSize: 0xF8 }
  - { offsetInCU: 0x53E6C, offset: 0x5DF0B, size: 0x8, addend: 0x0, symName: __ZNK5boost10wrapexceptINS_11regex_errorEE7rethrowEv, symObjAddr: 0x9BEC, symBinAddr: 0x10000AF68, symSize: 0x50 }
  - { offsetInCU: 0x53EA0, offset: 0x5DF3F, size: 0x8, addend: 0x0, symName: __ZN5boost10wrapexceptINS_11regex_errorEEC1ERKS2_, symObjAddr: 0x9DD8, symBinAddr: 0x10000B154, symSize: 0xB8 }
  - { offsetInCU: 0x53FFB, offset: 0x5E09A, size: 0x8, addend: 0x0, symName: __ZN5boost10wrapexceptINS_11regex_errorEED0Ev, symObjAddr: 0x9C3C, symBinAddr: 0x10000AFB8, symSize: 0x54 }
  - { offsetInCU: 0x540D5, offset: 0x5E174, size: 0x8, addend: 0x0, symName: __ZThn8_N5boost10wrapexceptINS_11regex_errorEED1Ev, symObjAddr: 0x9C90, symBinAddr: 0x10000B00C, symSize: 0x4C }
  - { offsetInCU: 0x541D0, offset: 0x5E26F, size: 0x8, addend: 0x0, symName: __ZThn8_N5boost10wrapexceptINS_11regex_errorEED0Ev, symObjAddr: 0x9CDC, symBinAddr: 0x10000B058, symSize: 0x58 }
  - { offsetInCU: 0x542B5, offset: 0x5E354, size: 0x8, addend: 0x0, symName: __ZThn40_N5boost10wrapexceptINS_11regex_errorEED1Ev, symObjAddr: 0x9D34, symBinAddr: 0x10000B0B0, symSize: 0x4C }
  - { offsetInCU: 0x54392, offset: 0x5E431, size: 0x8, addend: 0x0, symName: __ZThn40_N5boost10wrapexceptINS_11regex_errorEED0Ev, symObjAddr: 0x9D80, symBinAddr: 0x10000B0FC, symSize: 0x58 }
  - { offsetInCU: 0x544D4, offset: 0x5E573, size: 0x8, addend: 0x0, symName: __ZN5boost16exception_detail10clone_baseD1Ev, symObjAddr: 0x9FB0, symBinAddr: 0x10000B32C, symSize: 0x4 }
  - { offsetInCU: 0x544FB, offset: 0x5E59A, size: 0x8, addend: 0x0, symName: __ZN5boost16exception_detail10clone_baseD0Ev, symObjAddr: 0x9FB4, symBinAddr: 0x10000B330, symSize: 0x4 }
  - { offsetInCU: 0x54522, offset: 0x5E5C1, size: 0x8, addend: 0x0, symName: __ZN5boost11regex_errorD1Ev, symObjAddr: 0x9FB8, symBinAddr: 0x10000B334, symSize: 0x4 }
  - { offsetInCU: 0x54544, offset: 0x5E5E3, size: 0x8, addend: 0x0, symName: __ZN5boost11regex_errorD1Ev, symObjAddr: 0x9FB8, symBinAddr: 0x10000B334, symSize: 0x4 }
  - { offsetInCU: 0x5455E, offset: 0x5E5FD, size: 0x8, addend: 0x0, symName: __ZN5boost11regex_errorD0Ev, symObjAddr: 0x9FBC, symBinAddr: 0x10000B338, symSize: 0x14 }
  - { offsetInCU: 0x545DB, offset: 0x5E67A, size: 0x8, addend: 0x0, symName: __ZN5boost10wrapexceptISt11logic_errorED1Ev, symObjAddr: 0x9FD0, symBinAddr: 0x10000B34C, symSize: 0x54 }
  - { offsetInCU: 0x54707, offset: 0x5E7A6, size: 0x8, addend: 0x0, symName: __ZNK5boost10wrapexceptISt11logic_errorE5cloneEv, symObjAddr: 0xA024, symBinAddr: 0x10000B3A0, symSize: 0xE4 }
  - { offsetInCU: 0x54891, offset: 0x5E930, size: 0x8, addend: 0x0, symName: __ZNK5boost10wrapexceptISt11logic_errorE7rethrowEv, symObjAddr: 0xA108, symBinAddr: 0x10000B484, symSize: 0x50 }
  - { offsetInCU: 0x548C5, offset: 0x5E964, size: 0x8, addend: 0x0, symName: __ZN5boost10wrapexceptISt11logic_errorEC1ERKS2_, symObjAddr: 0xA2F4, symBinAddr: 0x10000B670, symSize: 0xA4 }
  - { offsetInCU: 0x549DF, offset: 0x5EA7E, size: 0x8, addend: 0x0, symName: __ZN5boost10wrapexceptISt11logic_errorED0Ev, symObjAddr: 0xA158, symBinAddr: 0x10000B4D4, symSize: 0x54 }
  - { offsetInCU: 0x54A9D, offset: 0x5EB3C, size: 0x8, addend: 0x0, symName: __ZThn8_N5boost10wrapexceptISt11logic_errorED1Ev, symObjAddr: 0xA1AC, symBinAddr: 0x10000B528, symSize: 0x4C }
  - { offsetInCU: 0x54B7A, offset: 0x5EC19, size: 0x8, addend: 0x0, symName: __ZThn8_N5boost10wrapexceptISt11logic_errorED0Ev, symObjAddr: 0xA1F8, symBinAddr: 0x10000B574, symSize: 0x58 }
  - { offsetInCU: 0x54C43, offset: 0x5ECE2, size: 0x8, addend: 0x0, symName: __ZThn24_N5boost10wrapexceptISt11logic_errorED1Ev, symObjAddr: 0xA250, symBinAddr: 0x10000B5CC, symSize: 0x4C }
  - { offsetInCU: 0x54D04, offset: 0x5EDA3, size: 0x8, addend: 0x0, symName: __ZThn24_N5boost10wrapexceptISt11logic_errorED0Ev, symObjAddr: 0xA29C, symBinAddr: 0x10000B618, symSize: 0x58 }
  - { offsetInCU: 0x54DCD, offset: 0x5EE6C, size: 0x8, addend: 0x0, symName: __ZN5boost13re_detail_50012perl_matcherINSt3__111__wrap_iterIPKcEENS2_9allocatorINS_9sub_matchIS6_EEEENS_12regex_traitsIcNS_16cpp_regex_traitsIcEEEEE10unwind_endEb, symObjAddr: 0xA398, symBinAddr: 0x10000B714, symSize: 0xC }
  - { offsetInCU: 0x54E00, offset: 0x5EE9F, size: 0x8, addend: 0x0, symName: __ZN5boost13re_detail_50012perl_matcherINSt3__111__wrap_iterIPKcEENS2_9allocatorINS_9sub_matchIS6_EEEENS_12regex_traitsIcNS_16cpp_regex_traitsIcEEEEE12unwind_parenEb, symObjAddr: 0xA3A4, symBinAddr: 0x10000B720, symSize: 0xC4 }
  - { offsetInCU: 0x54EB2, offset: 0x5EF51, size: 0x8, addend: 0x0, symName: __ZN5boost13re_detail_50012perl_matcherINSt3__111__wrap_iterIPKcEENS2_9allocatorINS_9sub_matchIS6_EEEENS_12regex_traitsIcNS_16cpp_regex_traitsIcEEEEE24unwind_recursion_stopperEb, symObjAddr: 0xA468, symBinAddr: 0x10000B7E4, symSize: 0x18 }
  - { offsetInCU: 0x54EE5, offset: 0x5EF84, size: 0x8, addend: 0x0, symName: __ZN5boost13re_detail_50012perl_matcherINSt3__111__wrap_iterIPKcEENS2_9allocatorINS_9sub_matchIS6_EEEENS_12regex_traitsIcNS_16cpp_regex_traitsIcEEEEE16unwind_assertionEb, symObjAddr: 0xA480, symBinAddr: 0x10000B7FC, symSize: 0x48 }
  - { offsetInCU: 0x54F45, offset: 0x5EFE4, size: 0x8, addend: 0x0, symName: __ZN5boost13re_detail_50012perl_matcherINSt3__111__wrap_iterIPKcEENS2_9allocatorINS_9sub_matchIS6_EEEENS_12regex_traitsIcNS_16cpp_regex_traitsIcEEEEE10unwind_altEb, symObjAddr: 0xA4C8, symBinAddr: 0x10000B844, symSize: 0x30 }
  - { offsetInCU: 0x54FCC, offset: 0x5F06B, size: 0x8, addend: 0x0, symName: __ZN5boost13re_detail_50012perl_matcherINSt3__111__wrap_iterIPKcEENS2_9allocatorINS_9sub_matchIS6_EEEENS_12regex_traitsIcNS_16cpp_regex_traitsIcEEEEE23unwind_repeater_counterEb, symObjAddr: 0xA4F8, symBinAddr: 0x10000B874, symSize: 0x24 }
  - { offsetInCU: 0x550A2, offset: 0x5F141, size: 0x8, addend: 0x0, symName: __ZN5boost13re_detail_50012perl_matcherINSt3__111__wrap_iterIPKcEENS2_9allocatorINS_9sub_matchIS6_EEEENS_12regex_traitsIcNS_16cpp_regex_traitsIcEEEEE18unwind_extra_blockEb, symObjAddr: 0xA51C, symBinAddr: 0x10000B898, symSize: 0x9C }
  - { offsetInCU: 0x55144, offset: 0x5F1E3, size: 0x8, addend: 0x0, symName: __ZN5boost13re_detail_50012perl_matcherINSt3__111__wrap_iterIPKcEENS2_9allocatorINS_9sub_matchIS6_EEEENS_12regex_traitsIcNS_16cpp_regex_traitsIcEEEEE27unwind_greedy_single_repeatEb, symObjAddr: 0xA5B8, symBinAddr: 0x10000B934, symSize: 0x13C }
  - { offsetInCU: 0x552A4, offset: 0x5F343, size: 0x8, addend: 0x0, symName: __ZN5boost13re_detail_50012perl_matcherINSt3__111__wrap_iterIPKcEENS2_9allocatorINS_9sub_matchIS6_EEEENS_12regex_traitsIcNS_16cpp_regex_traitsIcEEEEE22unwind_slow_dot_repeatEb, symObjAddr: 0xA6F4, symBinAddr: 0x10000BA70, symSize: 0x258 }
  - { offsetInCU: 0x554A7, offset: 0x5F546, size: 0x8, addend: 0x0, symName: __ZN5boost13re_detail_50012perl_matcherINSt3__111__wrap_iterIPKcEENS2_9allocatorINS_9sub_matchIS6_EEEENS_12regex_traitsIcNS_16cpp_regex_traitsIcEEEEE22unwind_fast_dot_repeatEb, symObjAddr: 0xA94C, symBinAddr: 0x10000BCC8, symSize: 0x158 }
  - { offsetInCU: 0x5569E, offset: 0x5F73D, size: 0x8, addend: 0x0, symName: __ZN5boost13re_detail_50012perl_matcherINSt3__111__wrap_iterIPKcEENS2_9allocatorINS_9sub_matchIS6_EEEENS_12regex_traitsIcNS_16cpp_regex_traitsIcEEEEE18unwind_char_repeatEb, symObjAddr: 0xAAA4, symBinAddr: 0x10000BE20, symSize: 0x264 }
  - { offsetInCU: 0x55988, offset: 0x5FA27, size: 0x8, addend: 0x0, symName: __ZN5boost13re_detail_50012perl_matcherINSt3__111__wrap_iterIPKcEENS2_9allocatorINS_9sub_matchIS6_EEEENS_12regex_traitsIcNS_16cpp_regex_traitsIcEEEEE23unwind_short_set_repeatEb, symObjAddr: 0xAD08, symBinAddr: 0x10000C084, symSize: 0x26C }
  - { offsetInCU: 0x55C77, offset: 0x5FD16, size: 0x8, addend: 0x0, symName: __ZN5boost13re_detail_50012perl_matcherINSt3__111__wrap_iterIPKcEENS2_9allocatorINS_9sub_matchIS6_EEEENS_12regex_traitsIcNS_16cpp_regex_traitsIcEEEEE22unwind_long_set_repeatEb, symObjAddr: 0xAF74, symBinAddr: 0x10000C2F0, symSize: 0x26C }
  - { offsetInCU: 0x55F6C, offset: 0x6000B, size: 0x8, addend: 0x0, symName: __ZN5boost13re_detail_50012perl_matcherINSt3__111__wrap_iterIPKcEENS2_9allocatorINS_9sub_matchIS6_EEEENS_12regex_traitsIcNS_16cpp_regex_traitsIcEEEEE24unwind_non_greedy_repeatEb, symObjAddr: 0xB1E0, symBinAddr: 0x10000C55C, symSize: 0x38 }
  - { offsetInCU: 0x56010, offset: 0x600AF, size: 0x8, addend: 0x0, symName: __ZN5boost13re_detail_50012perl_matcherINSt3__111__wrap_iterIPKcEENS2_9allocatorINS_9sub_matchIS6_EEEENS_12regex_traitsIcNS_16cpp_regex_traitsIcEEEEE16unwind_recursionEb, symObjAddr: 0xB218, symBinAddr: 0x10000C594, symSize: 0x178 }
  - { offsetInCU: 0x56793, offset: 0x60832, size: 0x8, addend: 0x0, symName: __ZN5boost13re_detail_50012perl_matcherINSt3__111__wrap_iterIPKcEENS2_9allocatorINS_9sub_matchIS6_EEEENS_12regex_traitsIcNS_16cpp_regex_traitsIcEEEEE20unwind_recursion_popEb, symObjAddr: 0xB390, symBinAddr: 0x10000C70C, symSize: 0xA4 }
  - { offsetInCU: 0x56B24, offset: 0x60BC3, size: 0x8, addend: 0x0, symName: __ZN5boost13re_detail_50012perl_matcherINSt3__111__wrap_iterIPKcEENS2_9allocatorINS_9sub_matchIS6_EEEENS_12regex_traitsIcNS_16cpp_regex_traitsIcEEEEE13unwind_commitEb, symObjAddr: 0xB434, symBinAddr: 0x10000C7B0, symSize: 0xAC }
  - { offsetInCU: 0x56C10, offset: 0x60CAF, size: 0x8, addend: 0x0, symName: __ZN5boost13re_detail_50012perl_matcherINSt3__111__wrap_iterIPKcEENS2_9allocatorINS_9sub_matchIS6_EEEENS_12regex_traitsIcNS_16cpp_regex_traitsIcEEEEE11unwind_thenEb, symObjAddr: 0xB4E0, symBinAddr: 0x10000C85C, symSize: 0xC4 }
  - { offsetInCU: 0x56D17, offset: 0x60DB6, size: 0x8, addend: 0x0, symName: __ZN5boost13re_detail_50012perl_matcherINSt3__111__wrap_iterIPKcEENS2_9allocatorINS_9sub_matchIS6_EEEENS_12regex_traitsIcNS_16cpp_regex_traitsIcEEEEE11unwind_caseEb, symObjAddr: 0xB5A4, symBinAddr: 0x10000C920, symSize: 0x1C }
  - { offsetInCU: 0x56DE8, offset: 0x60E87, size: 0x8, addend: 0x0, symName: __ZN5boost10wrapexceptISt16invalid_argumentED1Ev, symObjAddr: 0xB754, symBinAddr: 0x10000CAD0, symSize: 0x54 }
  - { offsetInCU: 0x56F14, offset: 0x60FB3, size: 0x8, addend: 0x0, symName: __ZNK5boost10wrapexceptISt16invalid_argumentE5cloneEv, symObjAddr: 0xB7A8, symBinAddr: 0x10000CB24, symSize: 0xF4 }
  - { offsetInCU: 0x570B5, offset: 0x61154, size: 0x8, addend: 0x0, symName: __ZNK5boost10wrapexceptISt16invalid_argumentE7rethrowEv, symObjAddr: 0xB89C, symBinAddr: 0x10000CC18, symSize: 0x50 }
  - { offsetInCU: 0x570E9, offset: 0x61188, size: 0x8, addend: 0x0, symName: __ZN5boost10wrapexceptISt16invalid_argumentEC1ERKS2_, symObjAddr: 0xBA88, symBinAddr: 0x10000CE04, symSize: 0xB4 }
  - { offsetInCU: 0x57228, offset: 0x612C7, size: 0x8, addend: 0x0, symName: __ZN5boost10wrapexceptISt16invalid_argumentED0Ev, symObjAddr: 0xB8EC, symBinAddr: 0x10000CC68, symSize: 0x54 }
  - { offsetInCU: 0x572E6, offset: 0x61385, size: 0x8, addend: 0x0, symName: __ZThn8_N5boost10wrapexceptISt16invalid_argumentED1Ev, symObjAddr: 0xB940, symBinAddr: 0x10000CCBC, symSize: 0x4C }
  - { offsetInCU: 0x573C3, offset: 0x61462, size: 0x8, addend: 0x0, symName: __ZThn8_N5boost10wrapexceptISt16invalid_argumentED0Ev, symObjAddr: 0xB98C, symBinAddr: 0x10000CD08, symSize: 0x58 }
  - { offsetInCU: 0x5748C, offset: 0x6152B, size: 0x8, addend: 0x0, symName: __ZThn24_N5boost10wrapexceptISt16invalid_argumentED1Ev, symObjAddr: 0xB9E4, symBinAddr: 0x10000CD60, symSize: 0x4C }
  - { offsetInCU: 0x5754D, offset: 0x615EC, size: 0x8, addend: 0x0, symName: __ZThn24_N5boost10wrapexceptISt16invalid_argumentED0Ev, symObjAddr: 0xBA30, symBinAddr: 0x10000CDAC, symSize: 0x58 }
  - { offsetInCU: 0x57FD6, offset: 0x62075, size: 0x8, addend: 0x0, symName: __ZN5boost13re_detail_50018basic_regex_parserIcNS_12regex_traitsIcNS_16cpp_regex_traitsIcEEEEE14parse_extendedEv, symObjAddr: 0xC06C, symBinAddr: 0x10000D3E8, symSize: 0x1FC4 }
  - { offsetInCU: 0x5E353, offset: 0x683F2, size: 0x8, addend: 0x0, symName: __ZN5boost13re_detail_50018basic_regex_parserIcNS_12regex_traitsIcNS_16cpp_regex_traitsIcEEEEE16parse_open_parenEv, symObjAddr: 0x13A60, symBinAddr: 0x100014DDC, symSize: 0x21DC }
  - { offsetInCU: 0x61504, offset: 0x6B5A3, size: 0x8, addend: 0x0, symName: __ZNK5boost16cpp_regex_traitsIcE3toiERPKcS3_i, symObjAddr: 0x13730, symBinAddr: 0x100014AAC, symSize: 0x210 }
  - { offsetInCU: 0x61854, offset: 0x6B8F3, size: 0x8, addend: 0x0, symName: __ZN5boost13re_detail_50019basic_regex_creatorIcNS_12regex_traitsIcNS_16cpp_regex_traitsIcEEEEE12append_stateENS0_19syntax_element_typeEm, symObjAddr: 0xE030, symBinAddr: 0x10000F3AC, symSize: 0x118 }
  - { offsetInCU: 0x61969, offset: 0x6BA08, size: 0x8, addend: 0x0, symName: __ZN5boost13re_detail_50018basic_regex_parserIcNS_12regex_traitsIcNS_16cpp_regex_traitsIcEEEEE12parse_repeatEmm, symObjAddr: 0xFA90, symBinAddr: 0x100010E0C, symSize: 0x788 }
  - { offsetInCU: 0x6286B, offset: 0x6C90A, size: 0x8, addend: 0x0, symName: __ZN5boost13re_detail_50018basic_regex_parserIcNS_12regex_traitsIcNS_16cpp_regex_traitsIcEEEEE9parse_altEv, symObjAddr: 0x10218, symBinAddr: 0x100011594, symSize: 0x320 }
  - { offsetInCU: 0x634BC, offset: 0x6D55B, size: 0x8, addend: 0x0, symName: __ZN5boost13re_detail_50018basic_regex_parserIcNS_12regex_traitsIcNS_16cpp_regex_traitsIcEEEEE17parse_set_literalERNS0_14basic_char_setIcS5_EE, symObjAddr: 0x10658, symBinAddr: 0x1000119D4, symSize: 0x4F0 }
  - { offsetInCU: 0x644B1, offset: 0x6E550, size: 0x8, addend: 0x0, symName: __ZNK5boost13re_detail_50031cpp_regex_traits_implementationIcE18lookup_collatenameEPKcS4_, symObjAddr: 0x1248C, symBinAddr: 0x100013808, symSize: 0x544 }
  - { offsetInCU: 0x65FF9, offset: 0x70098, size: 0x8, addend: 0x0, symName: __ZN5boost13re_detail_50018basic_regex_parserIcNS_12regex_traitsIcNS_16cpp_regex_traitsIcEEEEE4failENS_15regex_constants10error_typeEl, symObjAddr: 0x123F0, symBinAddr: 0x10001376C, symSize: 0x9C }
  - { offsetInCU: 0x662E4, offset: 0x70383, size: 0x8, addend: 0x0, symName: __ZN5boost13re_detail_50014basic_char_setIcNS_12regex_traitsIcNS_16cpp_regex_traitsIcEEEEE14add_equivalentERKNS0_7digraphIcEE, symObjAddr: 0x129D0, symBinAddr: 0x100013D4C, symSize: 0x78 }
  - { offsetInCU: 0x663E6, offset: 0x70485, size: 0x8, addend: 0x0, symName: __ZN5boost13re_detail_50018basic_regex_parserIcNS_12regex_traitsIcNS_16cpp_regex_traitsIcEEEEE13parse_literalEv, symObjAddr: 0xE148, symBinAddr: 0x10000F4C4, symSize: 0x124 }
  - { offsetInCU: 0x6651F, offset: 0x705BE, size: 0x8, addend: 0x0, symName: __ZN5boost13re_detail_50019basic_regex_creatorIcNS_12regex_traitsIcNS_16cpp_regex_traitsIcEEEEE10append_setERKNS0_14basic_char_setIcS5_EEPNSt3__117integral_constantIbLb0EEE, symObjAddr: 0x10B48, symBinAddr: 0x100011EC4, symSize: 0xAB8 }
  - { offsetInCU: 0x68806, offset: 0x728A5, size: 0x8, addend: 0x0, symName: __ZN5boost13re_detail_50019basic_regex_creatorIcNS_12regex_traitsIcNS_16cpp_regex_traitsIcEEEEE14append_literalEc, symObjAddr: 0xF928, symBinAddr: 0x100010CA4, symSize: 0x168 }
  - { offsetInCU: 0x68A7C, offset: 0x72B1B, size: 0x8, addend: 0x0, symName: __ZN5boost13re_detail_50019basic_regex_creatorIcNS_12regex_traitsIcNS_16cpp_regex_traitsIcEEEEE10append_setERKNS0_14basic_char_setIcS5_EEPNSt3__117integral_constantIbLb1EEE, symObjAddr: 0x11600, symBinAddr: 0x10001297C, symSize: 0x984 }
  - { offsetInCU: 0x6A4D4, offset: 0x74573, size: 0x8, addend: 0x0, symName: __ZN5boost13re_detail_50018basic_regex_parserIcNS_12regex_traitsIcNS_16cpp_regex_traitsIcEEEEE18unescape_characterEv, symObjAddr: 0x13048, symBinAddr: 0x1000143C4, symSize: 0x6E8 }
  - { offsetInCU: 0x6B398, offset: 0x75437, size: 0x8, addend: 0x0, symName: __ZNSt3__112basic_stringIcNS_11char_traitsIcEENS_9allocatorIcEEEC1B8ue170006ILi0EEEPKc, symObjAddr: 0xF694, symBinAddr: 0x100010A10, symSize: 0x9C }
  - { offsetInCU: 0x6B708, offset: 0x757A7, size: 0x8, addend: 0x0, symName: __ZNKSt3__16vectorINS_4pairIbPN5boost13re_detail_50014re_syntax_baseEEENS_9allocatorIS6_EEE20__throw_length_errorB8ue170006Ev, symObjAddr: 0xF730, symBinAddr: 0x100010AAC, symSize: 0x14 }
  - { offsetInCU: 0x6B713, offset: 0x757B2, size: 0x8, addend: 0x0, symName: __ZN5boost13re_detail_50014basic_char_setIcNS_12regex_traitsIcNS_16cpp_regex_traitsIcEEEEED1Ev, symObjAddr: 0x12100, symBinAddr: 0x10001347C, symSize: 0x40 }
  - { offsetInCU: 0x6B9E5, offset: 0x75A84, size: 0x8, addend: 0x0, symName: __ZNSt3__16__treeIN5boost13re_detail_5007digraphIcEENS_4lessIS4_EENS_9allocatorIS4_EEE7destroyEPNS_11__tree_nodeIS4_PvEE, symObjAddr: 0x120C8, symBinAddr: 0x100013444, symSize: 0x38 }
  - { offsetInCU: 0x6BB0E, offset: 0x75BAD, size: 0x8, addend: 0x0, symName: __ZNK5boost13re_detail_50020named_subexpressions6get_idEi, symObjAddr: 0x1644C, symBinAddr: 0x1000177C8, symSize: 0x58 }
  - { offsetInCU: 0x6BB48, offset: 0x75BE7, size: 0x8, addend: 0x0, symName: __ZNK5boost13re_detail_50020named_subexpressions6get_idEi, symObjAddr: 0x1644C, symBinAddr: 0x1000177C8, symSize: 0x58 }
  - { offsetInCU: 0x6BB6C, offset: 0x75C0B, size: 0x8, addend: 0x0, symName: __ZNK5boost13re_detail_50020named_subexpressions6get_idEi, symObjAddr: 0x1644C, symBinAddr: 0x1000177C8, symSize: 0x58 }
  - { offsetInCU: 0x6BB90, offset: 0x75C2F, size: 0x8, addend: 0x0, symName: __ZNK5boost13re_detail_50020named_subexpressions6get_idEi, symObjAddr: 0x1644C, symBinAddr: 0x1000177C8, symSize: 0x58 }
  - { offsetInCU: 0x6C024, offset: 0x760C3, size: 0x8, addend: 0x0, symName: __ZNKSt3__16vectorIhNS_9allocatorIhEEE20__throw_length_errorB8ue170006Ev, symObjAddr: 0xF680, symBinAddr: 0x1000109FC, symSize: 0x14 }
  - { offsetInCU: 0x6C049, offset: 0x760E8, size: 0x8, addend: 0x0, symName: __ZNSt3__112basic_stringIcNS_11char_traitsIcEENS_9allocatorIcEEEC1B8ue170006ILi0EEEPKc, symObjAddr: 0xF694, symBinAddr: 0x100010A10, symSize: 0x9C }
  - { offsetInCU: 0x6C38B, offset: 0x7642A, size: 0x8, addend: 0x0, symName: __ZN5boost13re_detail_50011raw_storage6insertEmm, symObjAddr: 0x10538, symBinAddr: 0x1000118B4, symSize: 0x10C }
  - { offsetInCU: 0x6C728, offset: 0x767C7, size: 0x8, addend: 0x0, symName: __ZNKSt3__16vectorIlNS_9allocatorIlEEE20__throw_length_errorB8ue170006Ev, symObjAddr: 0x10644, symBinAddr: 0x1000119C0, symSize: 0x14 }
  - { offsetInCU: 0x6C74D, offset: 0x767EC, size: 0x8, addend: 0x0, symName: __ZN5boost13re_detail_50018basic_regex_parserIcNS_12regex_traitsIcNS_16cpp_regex_traitsIcEEEEE17parse_set_literalERNS0_14basic_char_setIcS5_EE, symObjAddr: 0x10658, symBinAddr: 0x1000119D4, symSize: 0x4F0 }
  - { offsetInCU: 0x6CB6C, offset: 0x76C0B, size: 0x8, addend: 0x0, symName: __ZN5boost13re_detail_50018basic_regex_parserIcNS_12regex_traitsIcNS_16cpp_regex_traitsIcEEEEE20get_next_set_literalERNS0_14basic_char_setIcS5_EE, symObjAddr: 0x12CF4, symBinAddr: 0x100014070, symSize: 0x340 }
  - { offsetInCU: 0x6D177, offset: 0x77216, size: 0x8, addend: 0x0, symName: __ZNSt3__16__treeIN5boost13re_detail_5007digraphIcEENS_4lessIS4_EENS_9allocatorIS4_EEE25__emplace_unique_key_argsIS4_JRKS4_EEENS_4pairINS_15__tree_iteratorIS4_PNS_11__tree_nodeIS4_PvEElEEbEERKT_DpOT0_, symObjAddr: 0x12A48, symBinAddr: 0x100013DC4, symSize: 0x10C }
  - { offsetInCU: 0x6D4BD, offset: 0x7755C, size: 0x8, addend: 0x0, symName: __ZNKSt3__16vectorIN5boost13re_detail_5007digraphIcEENS_9allocatorIS4_EEE20__throw_length_errorB8ue170006Ev, symObjAddr: 0x13034, symBinAddr: 0x1000143B0, symSize: 0x14 }
  - { offsetInCU: 0x6D4E2, offset: 0x77581, size: 0x8, addend: 0x0, symName: __ZN5boost13re_detail_50018basic_regex_parserIcNS_12regex_traitsIcNS_16cpp_regex_traitsIcEEEEE18unescape_characterEv, symObjAddr: 0x13048, symBinAddr: 0x1000143C4, symSize: 0x6E8 }
  - { offsetInCU: 0x6E1B7, offset: 0x78256, size: 0x8, addend: 0x0, symName: __ZN5boost13re_detail_50010parser_bufIcNSt3__111char_traitsIcEEED1Ev, symObjAddr: 0x13940, symBinAddr: 0x100014CBC, symSize: 0x4 }
  - { offsetInCU: 0x6E1D9, offset: 0x78278, size: 0x8, addend: 0x0, symName: __ZN5boost13re_detail_50010parser_bufIcNSt3__111char_traitsIcEEED1Ev, symObjAddr: 0x13940, symBinAddr: 0x100014CBC, symSize: 0x4 }
  - { offsetInCU: 0x6E1F3, offset: 0x78292, size: 0x8, addend: 0x0, symName: __ZN5boost13re_detail_50010parser_bufIcNSt3__111char_traitsIcEEED0Ev, symObjAddr: 0x13944, symBinAddr: 0x100014CC0, symSize: 0x14 }
  - { offsetInCU: 0x6E256, offset: 0x782F5, size: 0x8, addend: 0x0, symName: __ZN5boost13re_detail_50010parser_bufIcNSt3__111char_traitsIcEEE6setbufEPcl, symObjAddr: 0x13958, symBinAddr: 0x100014CD4, symSize: 0x10 }
  - { offsetInCU: 0x6E2FC, offset: 0x7839B, size: 0x8, addend: 0x0, symName: __ZN5boost13re_detail_50010parser_bufIcNSt3__111char_traitsIcEEE7seekoffExNS2_8ios_base7seekdirEj, symObjAddr: 0x13968, symBinAddr: 0x100014CE4, symSize: 0xB0 }
  - { offsetInCU: 0x6E417, offset: 0x784B6, size: 0x8, addend: 0x0, symName: __ZN5boost13re_detail_50010parser_bufIcNSt3__111char_traitsIcEEE7seekposENS2_4fposI11__mbstate_tEEj, symObjAddr: 0x13A18, symBinAddr: 0x100014D94, symSize: 0x48 }
  - { offsetInCU: 0x6EA75, offset: 0x78B14, size: 0x8, addend: 0x0, symName: __ZN5boost13re_detail_50018basic_regex_parserIcNS_12regex_traitsIcNS_16cpp_regex_traitsIcEEEEE10match_verbEPKc, symObjAddr: 0x15C74, symBinAddr: 0x100016FF0, symSize: 0x16C }
  - { offsetInCU: 0x6EC57, offset: 0x78CF6, size: 0x8, addend: 0x0, symName: __ZN5boost13re_detail_50018basic_regex_parserIcNS_12regex_traitsIcNS_16cpp_regex_traitsIcEEEEE13parse_optionsEv, symObjAddr: 0x16118, symBinAddr: 0x100017494, symSize: 0x284 }
  - { offsetInCU: 0x6EF50, offset: 0x78FEF, size: 0x8, addend: 0x0, symName: __ZNSt3__16vectorINS_4pairImmEENS_9allocatorIS2_EEE9push_backB8ue170006EOS2_, symObjAddr: 0x15DE0, symBinAddr: 0x10001715C, symSize: 0x10C }
  - { offsetInCU: 0x6F45E, offset: 0x794FD, size: 0x8, addend: 0x0, symName: __ZN5boost13re_detail_50020named_subexpressions8set_nameIcEEvPKT_S5_i, symObjAddr: 0x15EEC, symBinAddr: 0x100017268, symSize: 0x22C }
  - { offsetInCU: 0x6F469, offset: 0x79508, size: 0x8, addend: 0x0, symName: __ZN5boost13re_detail_50020named_subexpressions8set_nameIcEEvPKT_S5_i, symObjAddr: 0x15EEC, symBinAddr: 0x100017268, symSize: 0x22C }
  - { offsetInCU: 0x6FA94, offset: 0x79B33, size: 0x8, addend: 0x0, symName: __ZN5boost13re_detail_50018basic_regex_parserIcNS_12regex_traitsIcNS_16cpp_regex_traitsIcEEEEE13parse_optionsEv, symObjAddr: 0x16118, symBinAddr: 0x100017494, symSize: 0x284 }
  - { offsetInCU: 0x6FAA8, offset: 0x79B47, size: 0x8, addend: 0x0, symName: __ZN5boost13re_detail_50019basic_regex_creatorIcNS_12regex_traitsIcNS_16cpp_regex_traitsIcEEEEE12insert_stateElNS0_19syntax_element_typeEm, symObjAddr: 0x1639C, symBinAddr: 0x100017718, symSize: 0x9C }
  - { offsetInCU: 0x6FC1A, offset: 0x79CB9, size: 0x8, addend: 0x0, symName: __ZNKSt3__16vectorINS_4pairImmEENS_9allocatorIS2_EEE20__throw_length_errorB8ue170006Ev, symObjAddr: 0x15C4C, symBinAddr: 0x100016FC8, symSize: 0x14 }
  - { offsetInCU: 0x6FC3F, offset: 0x79CDE, size: 0x8, addend: 0x0, symName: __ZNKSt3__16vectorINS_4pairImmEENS_9allocatorIS2_EEE20__throw_out_of_rangeB8ue170006Ev, symObjAddr: 0x15C60, symBinAddr: 0x100016FDC, symSize: 0x14 }
  - { offsetInCU: 0x6FC4A, offset: 0x79CE9, size: 0x8, addend: 0x0, symName: __ZNKSt3__16vectorINS_4pairImmEENS_9allocatorIS2_EEE20__throw_out_of_rangeB8ue170006Ev, symObjAddr: 0x15C60, symBinAddr: 0x100016FDC, symSize: 0x14 }
  - { offsetInCU: 0x6FC6F, offset: 0x79D0E, size: 0x8, addend: 0x0, symName: __ZN5boost13re_detail_50018basic_regex_parserIcNS_12regex_traitsIcNS_16cpp_regex_traitsIcEEEEE10match_verbEPKc, symObjAddr: 0x15C74, symBinAddr: 0x100016FF0, symSize: 0x16C }
  - { offsetInCU: 0x7006F, offset: 0x7A10E, size: 0x8, addend: 0x0, symName: __ZNKSt3__16vectorIN5boost13re_detail_50020named_subexpressions4nameENS_9allocatorIS4_EEE20__throw_length_errorB8ue170006Ev, symObjAddr: 0x16438, symBinAddr: 0x1000177B4, symSize: 0x14 }
  - { offsetInCU: 0x70094, offset: 0x7A133, size: 0x8, addend: 0x0, symName: __ZNK5boost13re_detail_50020named_subexpressions6get_idEi, symObjAddr: 0x1644C, symBinAddr: 0x1000177C8, symSize: 0x58 }
  - { offsetInCU: 0x700BB, offset: 0x7A15A, size: 0x8, addend: 0x0, symName: __ZNSt3__120__shared_ptr_pointerIPN5boost13re_detail_50026basic_regex_implementationIcNS1_12regex_traitsIcNS1_16cpp_regex_traitsIcEEEEEENS_10shared_ptrIS8_E27__shared_ptr_default_deleteIS8_S8_EENS_9allocatorIS8_EEED1Ev, symObjAddr: 0x164A4, symBinAddr: 0x100017820, symSize: 0x4 }
  - { offsetInCU: 0x700DD, offset: 0x7A17C, size: 0x8, addend: 0x0, symName: __ZNSt3__120__shared_ptr_pointerIPN5boost13re_detail_50026basic_regex_implementationIcNS1_12regex_traitsIcNS1_16cpp_regex_traitsIcEEEEEENS_10shared_ptrIS8_E27__shared_ptr_default_deleteIS8_S8_EENS_9allocatorIS8_EEED1Ev, symObjAddr: 0x164A4, symBinAddr: 0x100017820, symSize: 0x4 }
  - { offsetInCU: 0x70113, offset: 0x7A1B2, size: 0x8, addend: 0x0, symName: __ZNSt3__120__shared_ptr_pointerIPN5boost13re_detail_50026basic_regex_implementationIcNS1_12regex_traitsIcNS1_16cpp_regex_traitsIcEEEEEENS_10shared_ptrIS8_E27__shared_ptr_default_deleteIS8_S8_EENS_9allocatorIS8_EEED0Ev, symObjAddr: 0x164A8, symBinAddr: 0x100017824, symSize: 0x14 }
  - { offsetInCU: 0x70176, offset: 0x7A215, size: 0x8, addend: 0x0, symName: __ZNSt3__120__shared_ptr_pointerIPN5boost13re_detail_50026basic_regex_implementationIcNS1_12regex_traitsIcNS1_16cpp_regex_traitsIcEEEEEENS_10shared_ptrIS8_E27__shared_ptr_default_deleteIS8_S8_EENS_9allocatorIS8_EEE16__on_zero_sharedEv, symObjAddr: 0x164BC, symBinAddr: 0x100017838, symSize: 0x8 }
  - { offsetInCU: 0x70207, offset: 0x7A2A6, size: 0x8, addend: 0x0, symName: __ZNKSt3__120__shared_ptr_pointerIPN5boost13re_detail_50026basic_regex_implementationIcNS1_12regex_traitsIcNS1_16cpp_regex_traitsIcEEEEEENS_10shared_ptrIS8_E27__shared_ptr_default_deleteIS8_S8_EENS_9allocatorIS8_EEE13__get_deleterERKSt9type_info, symObjAddr: 0x164C4, symBinAddr: 0x100017840, symSize: 0x6C }
  - { offsetInCU: 0x702C6, offset: 0x7A365, size: 0x8, addend: 0x0, symName: __ZNSt3__120__shared_ptr_pointerIPN5boost13re_detail_50026basic_regex_implementationIcNS1_12regex_traitsIcNS1_16cpp_regex_traitsIcEEEEEENS_10shared_ptrIS8_E27__shared_ptr_default_deleteIS8_S8_EENS_9allocatorIS8_EEE21__on_zero_shared_weakEv, symObjAddr: 0x16530, symBinAddr: 0x1000178AC, symSize: 0x4 }
  - { offsetInCU: 0x702FB, offset: 0x7A39A, size: 0x8, addend: 0x0, symName: __ZNSt3__120__shared_ptr_pointerIPN5boost13re_detail_50026basic_regex_implementationIcNS1_12regex_traitsIcNS1_16cpp_regex_traitsIcEEEEEENS_10shared_ptrIS8_E27__shared_ptr_default_deleteIS8_S8_EENS_9allocatorIS8_EEE21__on_zero_shared_weakEv, symObjAddr: 0x16530, symBinAddr: 0x1000178AC, symSize: 0x4 }
  - { offsetInCU: 0x7031D, offset: 0x7A3BC, size: 0x8, addend: 0x0, symName: __ZNSt3__120__shared_ptr_pointerIPN5boost13re_detail_50026basic_regex_implementationIcNS1_12regex_traitsIcNS1_16cpp_regex_traitsIcEEEEEENS_10shared_ptrIS8_E27__shared_ptr_default_deleteIS8_S8_EENS_9allocatorIS8_EEE21__on_zero_shared_weakEv, symObjAddr: 0x16530, symBinAddr: 0x1000178AC, symSize: 0x4 }
  - { offsetInCU: 0x70348, offset: 0x7A3E7, size: 0x8, addend: 0x0, symName: __ZNSt3__120__shared_ptr_pointerIPN5boost13re_detail_50026basic_regex_implementationIcNS1_12regex_traitsIcNS1_16cpp_regex_traitsIcEEEEEENS_10shared_ptrIS8_E27__shared_ptr_default_deleteIS8_S8_EENS_9allocatorIS8_EEE21__on_zero_shared_weakEv, symObjAddr: 0x16530, symBinAddr: 0x1000178AC, symSize: 0x4 }
  - { offsetInCU: 0x7036E, offset: 0x7A40D, size: 0x8, addend: 0x0, symName: __ZNSt3__120__shared_ptr_pointerIPN5boost13re_detail_50026basic_regex_implementationIcNS1_12regex_traitsIcNS1_16cpp_regex_traitsIcEEEEEENS_10shared_ptrIS8_E27__shared_ptr_default_deleteIS8_S8_EENS_9allocatorIS8_EEE21__on_zero_shared_weakEv, symObjAddr: 0x16530, symBinAddr: 0x1000178AC, symSize: 0x4 }
  - { offsetInCU: 0x703B4, offset: 0x7A453, size: 0x8, addend: 0x0, symName: __ZNSt3__120__shared_ptr_pointerIPN5boost20regex_traits_wrapperINS1_12regex_traitsIcNS1_16cpp_regex_traitsIcEEEEEENS_10shared_ptrIS7_E27__shared_ptr_default_deleteIS7_S7_EENS_9allocatorIS7_EEED1Ev, symObjAddr: 0x16534, symBinAddr: 0x1000178B0, symSize: 0x4 }
  - { offsetInCU: 0x703D6, offset: 0x7A475, size: 0x8, addend: 0x0, symName: __ZNSt3__120__shared_ptr_pointerIPN5boost20regex_traits_wrapperINS1_12regex_traitsIcNS1_16cpp_regex_traitsIcEEEEEENS_10shared_ptrIS7_E27__shared_ptr_default_deleteIS7_S7_EENS_9allocatorIS7_EEED1Ev, symObjAddr: 0x16534, symBinAddr: 0x1000178B0, symSize: 0x4 }
  - { offsetInCU: 0x7040C, offset: 0x7A4AB, size: 0x8, addend: 0x0, symName: __ZNSt3__120__shared_ptr_pointerIPN5boost20regex_traits_wrapperINS1_12regex_traitsIcNS1_16cpp_regex_traitsIcEEEEEENS_10shared_ptrIS7_E27__shared_ptr_default_deleteIS7_S7_EENS_9allocatorIS7_EEED0Ev, symObjAddr: 0x16538, symBinAddr: 0x1000178B4, symSize: 0x14 }
  - { offsetInCU: 0x7046F, offset: 0x7A50E, size: 0x8, addend: 0x0, symName: __ZNSt3__120__shared_ptr_pointerIPN5boost20regex_traits_wrapperINS1_12regex_traitsIcNS1_16cpp_regex_traitsIcEEEEEENS_10shared_ptrIS7_E27__shared_ptr_default_deleteIS7_S7_EENS_9allocatorIS7_EEE16__on_zero_sharedEv, symObjAddr: 0x1654C, symBinAddr: 0x1000178C8, symSize: 0x60 }
  - { offsetInCU: 0x705C0, offset: 0x7A65F, size: 0x8, addend: 0x0, symName: __ZNKSt3__120__shared_ptr_pointerIPN5boost20regex_traits_wrapperINS1_12regex_traitsIcNS1_16cpp_regex_traitsIcEEEEEENS_10shared_ptrIS7_E27__shared_ptr_default_deleteIS7_S7_EENS_9allocatorIS7_EEE13__get_deleterERKSt9type_info, symObjAddr: 0x165AC, symBinAddr: 0x100017928, symSize: 0x6C }
  - { offsetInCU: 0x7067F, offset: 0x7A71E, size: 0x8, addend: 0x0, symName: __ZNSt3__120__shared_ptr_pointerIPN5boost20regex_traits_wrapperINS1_12regex_traitsIcNS1_16cpp_regex_traitsIcEEEEEENS_10shared_ptrIS7_E27__shared_ptr_default_deleteIS7_S7_EENS_9allocatorIS7_EEE21__on_zero_shared_weakEv, symObjAddr: 0x16618, symBinAddr: 0x100017994, symSize: 0x4 }
  - { offsetInCU: 0x706B4, offset: 0x7A753, size: 0x8, addend: 0x0, symName: __ZNSt3__120__shared_ptr_pointerIPN5boost20regex_traits_wrapperINS1_12regex_traitsIcNS1_16cpp_regex_traitsIcEEEEEENS_10shared_ptrIS7_E27__shared_ptr_default_deleteIS7_S7_EENS_9allocatorIS7_EEE21__on_zero_shared_weakEv, symObjAddr: 0x16618, symBinAddr: 0x100017994, symSize: 0x4 }
  - { offsetInCU: 0x706D6, offset: 0x7A775, size: 0x8, addend: 0x0, symName: __ZNSt3__120__shared_ptr_pointerIPN5boost20regex_traits_wrapperINS1_12regex_traitsIcNS1_16cpp_regex_traitsIcEEEEEENS_10shared_ptrIS7_E27__shared_ptr_default_deleteIS7_S7_EENS_9allocatorIS7_EEE21__on_zero_shared_weakEv, symObjAddr: 0x16618, symBinAddr: 0x100017994, symSize: 0x4 }
  - { offsetInCU: 0x70701, offset: 0x7A7A0, size: 0x8, addend: 0x0, symName: __ZNSt3__120__shared_ptr_pointerIPN5boost20regex_traits_wrapperINS1_12regex_traitsIcNS1_16cpp_regex_traitsIcEEEEEENS_10shared_ptrIS7_E27__shared_ptr_default_deleteIS7_S7_EENS_9allocatorIS7_EEE21__on_zero_shared_weakEv, symObjAddr: 0x16618, symBinAddr: 0x100017994, symSize: 0x4 }
  - { offsetInCU: 0x70727, offset: 0x7A7C6, size: 0x8, addend: 0x0, symName: __ZNSt3__120__shared_ptr_pointerIPN5boost20regex_traits_wrapperINS1_12regex_traitsIcNS1_16cpp_regex_traitsIcEEEEEENS_10shared_ptrIS7_E27__shared_ptr_default_deleteIS7_S7_EENS_9allocatorIS7_EEE21__on_zero_shared_weakEv, symObjAddr: 0x16618, symBinAddr: 0x100017994, symSize: 0x4 }
  - { offsetInCU: 0x707F4, offset: 0x7A893, size: 0x8, addend: 0x0, symName: __ZN5boost12object_cacheINS_13re_detail_50021cpp_regex_traits_baseIcEENS1_31cpp_regex_traits_implementationIcEEE4dataD1Ev, symObjAddr: 0x1661C, symBinAddr: 0x100017998, symSize: 0xB4 }
  - { offsetInCU: 0x70BDA, offset: 0x7AC79, size: 0x8, addend: 0x0, symName: __ZNSt3__16__treeINS_12__value_typeIN5boost13re_detail_50021cpp_regex_traits_baseIcEENS_15__list_iteratorINS_4pairINS_10shared_ptrIKNS3_31cpp_regex_traits_implementationIcEEEEPKS5_EEPvEEEENS_19__map_value_compareIS5_SI_NS_4lessIS5_EELb1EEENS_9allocatorISI_EEE7destroyEPNS_11__tree_nodeISI_SG_EE, symObjAddr: 0x170B0, symBinAddr: 0x10001842C, symSize: 0x40 }
  - { offsetInCU: 0x711C5, offset: 0x7B264, size: 0x8, addend: 0x0, symName: __ZNSt3__120__shared_ptr_pointerIPN5boost13re_detail_50031cpp_regex_traits_implementationIcEENS_10shared_ptrIKS4_E27__shared_ptr_default_deleteIS7_S4_EENS_9allocatorIS4_EEED1Ev, symObjAddr: 0x16A38, symBinAddr: 0x100017DB4, symSize: 0x4 }
  - { offsetInCU: 0x711E7, offset: 0x7B286, size: 0x8, addend: 0x0, symName: __ZNSt3__120__shared_ptr_pointerIPN5boost13re_detail_50031cpp_regex_traits_implementationIcEENS_10shared_ptrIKS4_E27__shared_ptr_default_deleteIS7_S4_EENS_9allocatorIS4_EEED1Ev, symObjAddr: 0x16A38, symBinAddr: 0x100017DB4, symSize: 0x4 }
  - { offsetInCU: 0x7121D, offset: 0x7B2BC, size: 0x8, addend: 0x0, symName: __ZNSt3__120__shared_ptr_pointerIPN5boost13re_detail_50031cpp_regex_traits_implementationIcEENS_10shared_ptrIKS4_E27__shared_ptr_default_deleteIS7_S4_EENS_9allocatorIS4_EEED0Ev, symObjAddr: 0x16A3C, symBinAddr: 0x100017DB8, symSize: 0x14 }
  - { offsetInCU: 0x7129D, offset: 0x7B33C, size: 0x8, addend: 0x0, symName: __ZNSt3__120__shared_ptr_pointerIPN5boost13re_detail_50031cpp_regex_traits_implementationIcEENS_10shared_ptrIKS4_E27__shared_ptr_default_deleteIS7_S4_EENS_9allocatorIS4_EEE16__on_zero_sharedEv, symObjAddr: 0x16A50, symBinAddr: 0x100017DCC, symSize: 0x4C }
  - { offsetInCU: 0x7155F, offset: 0x7B5FE, size: 0x8, addend: 0x0, symName: __ZNKSt3__120__shared_ptr_pointerIPN5boost13re_detail_50031cpp_regex_traits_implementationIcEENS_10shared_ptrIKS4_E27__shared_ptr_default_deleteIS7_S4_EENS_9allocatorIS4_EEE13__get_deleterERKSt9type_info, symObjAddr: 0x16A9C, symBinAddr: 0x100017E18, symSize: 0x6C }
  - { offsetInCU: 0x7161E, offset: 0x7B6BD, size: 0x8, addend: 0x0, symName: __ZNSt3__120__shared_ptr_pointerIPN5boost13re_detail_50031cpp_regex_traits_implementationIcEENS_10shared_ptrIKS4_E27__shared_ptr_default_deleteIS7_S4_EENS_9allocatorIS4_EEE21__on_zero_shared_weakEv, symObjAddr: 0x16B08, symBinAddr: 0x100017E84, symSize: 0x4 }
  - { offsetInCU: 0x71653, offset: 0x7B6F2, size: 0x8, addend: 0x0, symName: __ZNSt3__120__shared_ptr_pointerIPN5boost13re_detail_50031cpp_regex_traits_implementationIcEENS_10shared_ptrIKS4_E27__shared_ptr_default_deleteIS7_S4_EENS_9allocatorIS4_EEE21__on_zero_shared_weakEv, symObjAddr: 0x16B08, symBinAddr: 0x100017E84, symSize: 0x4 }
  - { offsetInCU: 0x71675, offset: 0x7B714, size: 0x8, addend: 0x0, symName: __ZNSt3__120__shared_ptr_pointerIPN5boost13re_detail_50031cpp_regex_traits_implementationIcEENS_10shared_ptrIKS4_E27__shared_ptr_default_deleteIS7_S4_EENS_9allocatorIS4_EEE21__on_zero_shared_weakEv, symObjAddr: 0x16B08, symBinAddr: 0x100017E84, symSize: 0x4 }
  - { offsetInCU: 0x716A0, offset: 0x7B73F, size: 0x8, addend: 0x0, symName: __ZNSt3__120__shared_ptr_pointerIPN5boost13re_detail_50031cpp_regex_traits_implementationIcEENS_10shared_ptrIKS4_E27__shared_ptr_default_deleteIS7_S4_EENS_9allocatorIS4_EEE21__on_zero_shared_weakEv, symObjAddr: 0x16B08, symBinAddr: 0x100017E84, symSize: 0x4 }
  - { offsetInCU: 0x716C6, offset: 0x7B765, size: 0x8, addend: 0x0, symName: __ZNSt3__120__shared_ptr_pointerIPN5boost13re_detail_50031cpp_regex_traits_implementationIcEENS_10shared_ptrIKS4_E27__shared_ptr_default_deleteIS7_S4_EENS_9allocatorIS4_EEE21__on_zero_shared_weakEv, symObjAddr: 0x16B08, symBinAddr: 0x100017E84, symSize: 0x4 }
  - { offsetInCU: 0x7176D, offset: 0x7B80C, size: 0x8, addend: 0x0, symName: __ZN5boost10wrapexceptISt13runtime_errorED1Ev, symObjAddr: 0x16CE8, symBinAddr: 0x100018064, symSize: 0x54 }
  - { offsetInCU: 0x71899, offset: 0x7B938, size: 0x8, addend: 0x0, symName: __ZNK5boost10wrapexceptISt13runtime_errorE5cloneEv, symObjAddr: 0x16D3C, symBinAddr: 0x1000180B8, symSize: 0xE4 }
  - { offsetInCU: 0x71A23, offset: 0x7BAC2, size: 0x8, addend: 0x0, symName: __ZNK5boost10wrapexceptISt13runtime_errorE7rethrowEv, symObjAddr: 0x16E20, symBinAddr: 0x10001819C, symSize: 0x50 }
  - { offsetInCU: 0x71A57, offset: 0x7BAF6, size: 0x8, addend: 0x0, symName: __ZN5boost10wrapexceptISt13runtime_errorEC1ERKS2_, symObjAddr: 0x1700C, symBinAddr: 0x100018388, symSize: 0xA4 }
  - { offsetInCU: 0x71B71, offset: 0x7BC10, size: 0x8, addend: 0x0, symName: __ZN5boost10wrapexceptISt13runtime_errorED0Ev, symObjAddr: 0x16E70, symBinAddr: 0x1000181EC, symSize: 0x54 }
  - { offsetInCU: 0x71C2F, offset: 0x7BCCE, size: 0x8, addend: 0x0, symName: __ZThn8_N5boost10wrapexceptISt13runtime_errorED1Ev, symObjAddr: 0x16EC4, symBinAddr: 0x100018240, symSize: 0x4C }
  - { offsetInCU: 0x71D0C, offset: 0x7BDAB, size: 0x8, addend: 0x0, symName: __ZThn8_N5boost10wrapexceptISt13runtime_errorED0Ev, symObjAddr: 0x16F10, symBinAddr: 0x10001828C, symSize: 0x58 }
  - { offsetInCU: 0x71DD5, offset: 0x7BE74, size: 0x8, addend: 0x0, symName: __ZThn24_N5boost10wrapexceptISt13runtime_errorED1Ev, symObjAddr: 0x16F68, symBinAddr: 0x1000182E4, symSize: 0x4C }
  - { offsetInCU: 0x71E96, offset: 0x7BF35, size: 0x8, addend: 0x0, symName: __ZThn24_N5boost10wrapexceptISt13runtime_errorED0Ev, symObjAddr: 0x16FB4, symBinAddr: 0x100018330, symSize: 0x58 }
...
